
bomb：     文件格式 elf32-i386


Disassembly of section .init:

080486f4 <_init>:
 80486f4:	53                   	push   %ebx
 80486f5:	83 ec 08             	sub    $0x8,%esp
 80486f8:	e8 13 02 00 00       	call   8048910 <__x86.get_pc_thunk.bx>
 80486fd:	81 c3 03 39 00 00    	add    $0x3903,%ebx
 8048703:	8b 83 fc ff ff ff    	mov    -0x4(%ebx),%eax
 8048709:	85 c0                	test   %eax,%eax
 804870b:	74 05                	je     8048712 <_init+0x1e>
 804870d:	e8 be 01 00 00       	call   80488d0 <.plt.got>
 8048712:	83 c4 08             	add    $0x8,%esp
 8048715:	5b                   	pop    %ebx
 8048716:	c3                   	ret    

Disassembly of section .plt:

08048720 <.plt>:
 8048720:	ff 35 04 c0 04 08    	pushl  0x804c004
 8048726:	ff 25 08 c0 04 08    	jmp    *0x804c008
 804872c:	00 00                	add    %al,(%eax)
	...

08048730 <read@plt>:
 8048730:	ff 25 0c c0 04 08    	jmp    *0x804c00c
 8048736:	68 00 00 00 00       	push   $0x0
 804873b:	e9 e0 ff ff ff       	jmp    8048720 <.plt>

08048740 <fflush@plt>:
 8048740:	ff 25 10 c0 04 08    	jmp    *0x804c010
 8048746:	68 08 00 00 00       	push   $0x8
 804874b:	e9 d0 ff ff ff       	jmp    8048720 <.plt>

08048750 <fgets@plt>:
 8048750:	ff 25 14 c0 04 08    	jmp    *0x804c014
 8048756:	68 10 00 00 00       	push   $0x10
 804875b:	e9 c0 ff ff ff       	jmp    8048720 <.plt>

08048760 <signal@plt>:
 8048760:	ff 25 18 c0 04 08    	jmp    *0x804c018
 8048766:	68 18 00 00 00       	push   $0x18
 804876b:	e9 b0 ff ff ff       	jmp    8048720 <.plt>

08048770 <sleep@plt>:
 8048770:	ff 25 1c c0 04 08    	jmp    *0x804c01c
 8048776:	68 20 00 00 00       	push   $0x20
 804877b:	e9 a0 ff ff ff       	jmp    8048720 <.plt>

08048780 <alarm@plt>:
 8048780:	ff 25 20 c0 04 08    	jmp    *0x804c020
 8048786:	68 28 00 00 00       	push   $0x28
 804878b:	e9 90 ff ff ff       	jmp    8048720 <.plt>

08048790 <__stack_chk_fail@plt>:
 8048790:	ff 25 24 c0 04 08    	jmp    *0x804c024
 8048796:	68 30 00 00 00       	push   $0x30
 804879b:	e9 80 ff ff ff       	jmp    8048720 <.plt>

080487a0 <strcpy@plt>:
 80487a0:	ff 25 28 c0 04 08    	jmp    *0x804c028
 80487a6:	68 38 00 00 00       	push   $0x38
 80487ab:	e9 70 ff ff ff       	jmp    8048720 <.plt>

080487b0 <getenv@plt>:
 80487b0:	ff 25 2c c0 04 08    	jmp    *0x804c02c
 80487b6:	68 40 00 00 00       	push   $0x40
 80487bb:	e9 60 ff ff ff       	jmp    8048720 <.plt>

080487c0 <puts@plt>:
 80487c0:	ff 25 30 c0 04 08    	jmp    *0x804c030
 80487c6:	68 48 00 00 00       	push   $0x48
 80487cb:	e9 50 ff ff ff       	jmp    8048720 <.plt>

080487d0 <__memmove_chk@plt>:
 80487d0:	ff 25 34 c0 04 08    	jmp    *0x804c034
 80487d6:	68 50 00 00 00       	push   $0x50
 80487db:	e9 40 ff ff ff       	jmp    8048720 <.plt>

080487e0 <exit@plt>:
 80487e0:	ff 25 38 c0 04 08    	jmp    *0x804c038
 80487e6:	68 58 00 00 00       	push   $0x58
 80487eb:	e9 30 ff ff ff       	jmp    8048720 <.plt>

080487f0 <__libc_start_main@plt>:
 80487f0:	ff 25 3c c0 04 08    	jmp    *0x804c03c
 80487f6:	68 60 00 00 00       	push   $0x60
 80487fb:	e9 20 ff ff ff       	jmp    8048720 <.plt>

08048800 <write@plt>:
 8048800:	ff 25 40 c0 04 08    	jmp    *0x804c040
 8048806:	68 68 00 00 00       	push   $0x68
 804880b:	e9 10 ff ff ff       	jmp    8048720 <.plt>

08048810 <__isoc99_sscanf@plt>:
 8048810:	ff 25 44 c0 04 08    	jmp    *0x804c044
 8048816:	68 70 00 00 00       	push   $0x70
 804881b:	e9 00 ff ff ff       	jmp    8048720 <.plt>

08048820 <fopen@plt>:
 8048820:	ff 25 48 c0 04 08    	jmp    *0x804c048
 8048826:	68 78 00 00 00       	push   $0x78
 804882b:	e9 f0 fe ff ff       	jmp    8048720 <.plt>

08048830 <__errno_location@plt>:
 8048830:	ff 25 4c c0 04 08    	jmp    *0x804c04c
 8048836:	68 80 00 00 00       	push   $0x80
 804883b:	e9 e0 fe ff ff       	jmp    8048720 <.plt>

08048840 <__printf_chk@plt>:
 8048840:	ff 25 50 c0 04 08    	jmp    *0x804c050
 8048846:	68 88 00 00 00       	push   $0x88
 804884b:	e9 d0 fe ff ff       	jmp    8048720 <.plt>

08048850 <socket@plt>:
 8048850:	ff 25 54 c0 04 08    	jmp    *0x804c054
 8048856:	68 90 00 00 00       	push   $0x90
 804885b:	e9 c0 fe ff ff       	jmp    8048720 <.plt>

08048860 <__fprintf_chk@plt>:
 8048860:	ff 25 58 c0 04 08    	jmp    *0x804c058
 8048866:	68 98 00 00 00       	push   $0x98
 804886b:	e9 b0 fe ff ff       	jmp    8048720 <.plt>

08048870 <gethostbyname@plt>:
 8048870:	ff 25 5c c0 04 08    	jmp    *0x804c05c
 8048876:	68 a0 00 00 00       	push   $0xa0
 804887b:	e9 a0 fe ff ff       	jmp    8048720 <.plt>

08048880 <strtol@plt>:
 8048880:	ff 25 60 c0 04 08    	jmp    *0x804c060
 8048886:	68 a8 00 00 00       	push   $0xa8
 804888b:	e9 90 fe ff ff       	jmp    8048720 <.plt>

08048890 <connect@plt>:
 8048890:	ff 25 64 c0 04 08    	jmp    *0x804c064
 8048896:	68 b0 00 00 00       	push   $0xb0
 804889b:	e9 80 fe ff ff       	jmp    8048720 <.plt>

080488a0 <close@plt>:
 80488a0:	ff 25 68 c0 04 08    	jmp    *0x804c068
 80488a6:	68 b8 00 00 00       	push   $0xb8
 80488ab:	e9 70 fe ff ff       	jmp    8048720 <.plt>

080488b0 <__ctype_b_loc@plt>:
 80488b0:	ff 25 6c c0 04 08    	jmp    *0x804c06c
 80488b6:	68 c0 00 00 00       	push   $0xc0
 80488bb:	e9 60 fe ff ff       	jmp    8048720 <.plt>

080488c0 <__sprintf_chk@plt>:
 80488c0:	ff 25 70 c0 04 08    	jmp    *0x804c070
 80488c6:	68 c8 00 00 00       	push   $0xc8
 80488cb:	e9 50 fe ff ff       	jmp    8048720 <.plt>

Disassembly of section .plt.got:

080488d0 <.plt.got>:
 80488d0:	ff 25 fc bf 04 08    	jmp    *0x804bffc
 80488d6:	66 90                	xchg   %ax,%ax

Disassembly of section .text:

080488e0 <_start>:
 80488e0:	31 ed                	xor    %ebp,%ebp
 80488e2:	5e                   	pop    %esi
 80488e3:	89 e1                	mov    %esp,%ecx
 80488e5:	83 e4 f0             	and    $0xfffffff0,%esp
 80488e8:	50                   	push   %eax
 80488e9:	54                   	push   %esp
 80488ea:	52                   	push   %edx
 80488eb:	68 30 9f 04 08       	push   $0x8049f30
 80488f0:	68 d0 9e 04 08       	push   $0x8049ed0
 80488f5:	51                   	push   %ecx
 80488f6:	56                   	push   %esi
 80488f7:	68 db 89 04 08       	push   $0x80489db
 80488fc:	e8 ef fe ff ff       	call   80487f0 <__libc_start_main@plt>
 8048901:	f4                   	hlt    
 8048902:	66 90                	xchg   %ax,%ax
 8048904:	66 90                	xchg   %ax,%ax
 8048906:	66 90                	xchg   %ax,%ax
 8048908:	66 90                	xchg   %ax,%ax
 804890a:	66 90                	xchg   %ax,%ax
 804890c:	66 90                	xchg   %ax,%ax
 804890e:	66 90                	xchg   %ax,%ax

08048910 <__x86.get_pc_thunk.bx>:
 8048910:	8b 1c 24             	mov    (%esp),%ebx
 8048913:	c3                   	ret    
 8048914:	66 90                	xchg   %ax,%ax
 8048916:	66 90                	xchg   %ax,%ax
 8048918:	66 90                	xchg   %ax,%ax
 804891a:	66 90                	xchg   %ax,%ax
 804891c:	66 90                	xchg   %ax,%ax
 804891e:	66 90                	xchg   %ax,%ax

08048920 <deregister_tm_clones>:
 8048920:	b8 a3 c3 04 08       	mov    $0x804c3a3,%eax
 8048925:	2d a0 c3 04 08       	sub    $0x804c3a0,%eax
 804892a:	83 f8 06             	cmp    $0x6,%eax
 804892d:	76 1a                	jbe    8048949 <deregister_tm_clones+0x29>
 804892f:	b8 00 00 00 00       	mov    $0x0,%eax
 8048934:	85 c0                	test   %eax,%eax
 8048936:	74 11                	je     8048949 <deregister_tm_clones+0x29>
 8048938:	55                   	push   %ebp
 8048939:	89 e5                	mov    %esp,%ebp
 804893b:	83 ec 14             	sub    $0x14,%esp
 804893e:	68 a0 c3 04 08       	push   $0x804c3a0
 8048943:	ff d0                	call   *%eax
 8048945:	83 c4 10             	add    $0x10,%esp
 8048948:	c9                   	leave  
 8048949:	f3 c3                	repz ret 
 804894b:	90                   	nop
 804894c:	8d 74 26 00          	lea    0x0(%esi,%eiz,1),%esi

08048950 <register_tm_clones>:
 8048950:	b8 a0 c3 04 08       	mov    $0x804c3a0,%eax
 8048955:	2d a0 c3 04 08       	sub    $0x804c3a0,%eax
 804895a:	c1 f8 02             	sar    $0x2,%eax
 804895d:	89 c2                	mov    %eax,%edx
 804895f:	c1 ea 1f             	shr    $0x1f,%edx
 8048962:	01 d0                	add    %edx,%eax
 8048964:	d1 f8                	sar    %eax
 8048966:	74 1b                	je     8048983 <register_tm_clones+0x33>
 8048968:	ba 00 00 00 00       	mov    $0x0,%edx
 804896d:	85 d2                	test   %edx,%edx
 804896f:	74 12                	je     8048983 <register_tm_clones+0x33>
 8048971:	55                   	push   %ebp
 8048972:	89 e5                	mov    %esp,%ebp
 8048974:	83 ec 10             	sub    $0x10,%esp
 8048977:	50                   	push   %eax
 8048978:	68 a0 c3 04 08       	push   $0x804c3a0
 804897d:	ff d2                	call   *%edx
 804897f:	83 c4 10             	add    $0x10,%esp
 8048982:	c9                   	leave  
 8048983:	f3 c3                	repz ret 
 8048985:	8d 74 26 00          	lea    0x0(%esi,%eiz,1),%esi
 8048989:	8d bc 27 00 00 00 00 	lea    0x0(%edi,%eiz,1),%edi

08048990 <__do_global_dtors_aux>:
 8048990:	80 3d c8 c3 04 08 00 	cmpb   $0x0,0x804c3c8
 8048997:	75 13                	jne    80489ac <__do_global_dtors_aux+0x1c>
 8048999:	55                   	push   %ebp
 804899a:	89 e5                	mov    %esp,%ebp
 804899c:	83 ec 08             	sub    $0x8,%esp
 804899f:	e8 7c ff ff ff       	call   8048920 <deregister_tm_clones>
 80489a4:	c6 05 c8 c3 04 08 01 	movb   $0x1,0x804c3c8
 80489ab:	c9                   	leave  
 80489ac:	f3 c3                	repz ret 
 80489ae:	66 90                	xchg   %ax,%ax

080489b0 <frame_dummy>:
 80489b0:	b8 10 bf 04 08       	mov    $0x804bf10,%eax
 80489b5:	8b 10                	mov    (%eax),%edx
 80489b7:	85 d2                	test   %edx,%edx
 80489b9:	75 05                	jne    80489c0 <frame_dummy+0x10>
 80489bb:	eb 93                	jmp    8048950 <register_tm_clones>
 80489bd:	8d 76 00             	lea    0x0(%esi),%esi
 80489c0:	ba 00 00 00 00       	mov    $0x0,%edx
 80489c5:	85 d2                	test   %edx,%edx
 80489c7:	74 f2                	je     80489bb <frame_dummy+0xb>
 80489c9:	55                   	push   %ebp
 80489ca:	89 e5                	mov    %esp,%ebp
 80489cc:	83 ec 14             	sub    $0x14,%esp
 80489cf:	50                   	push   %eax
 80489d0:	ff d2                	call   *%edx
 80489d2:	83 c4 10             	add    $0x10,%esp
 80489d5:	c9                   	leave  
 80489d6:	e9 75 ff ff ff       	jmp    8048950 <register_tm_clones>

080489db <main>:
 80489db:	8d 4c 24 04          	lea    0x4(%esp),%ecx
 80489df:	83 e4 f0             	and    $0xfffffff0,%esp
 80489e2:	ff 71 fc             	pushl  -0x4(%ecx)
 80489e5:	55                   	push   %ebp
 80489e6:	89 e5                	mov    %esp,%ebp
 80489e8:	53                   	push   %ebx
 80489e9:	51                   	push   %ecx
 80489ea:	8b 01                	mov    (%ecx),%eax
 80489ec:	8b 59 04             	mov    0x4(%ecx),%ebx
 80489ef:	83 f8 01             	cmp    $0x1,%eax
 80489f2:	75 0c                	jne    8048a00 <main+0x25>
 80489f4:	a1 c0 c3 04 08       	mov    0x804c3c0,%eax
 80489f9:	a3 d0 c3 04 08       	mov    %eax,0x804c3d0
 80489fe:	eb 5b                	jmp    8048a5b <main+0x80>
 8048a00:	83 f8 02             	cmp    $0x2,%eax
 8048a03:	75 39                	jne    8048a3e <main+0x63>
 8048a05:	83 ec 08             	sub    $0x8,%esp
 8048a08:	68 68 9f 04 08       	push   $0x8049f68
 8048a0d:	ff 73 04             	pushl  0x4(%ebx)
 8048a10:	e8 0b fe ff ff       	call   8048820 <fopen@plt>
 8048a15:	a3 d0 c3 04 08       	mov    %eax,0x804c3d0
 8048a1a:	83 c4 10             	add    $0x10,%esp
 8048a1d:	85 c0                	test   %eax,%eax
 8048a1f:	75 3a                	jne    8048a5b <main+0x80>
 8048a21:	ff 73 04             	pushl  0x4(%ebx)
 8048a24:	ff 33                	pushl  (%ebx)
 8048a26:	68 6a 9f 04 08       	push   $0x8049f6a
 8048a2b:	6a 01                	push   $0x1
 8048a2d:	e8 0e fe ff ff       	call   8048840 <__printf_chk@plt>
 8048a32:	c7 04 24 08 00 00 00 	movl   $0x8,(%esp)
 8048a39:	e8 a2 fd ff ff       	call   80487e0 <exit@plt>
 8048a3e:	83 ec 04             	sub    $0x4,%esp
 8048a41:	ff 33                	pushl  (%ebx)
 8048a43:	68 87 9f 04 08       	push   $0x8049f87
 8048a48:	6a 01                	push   $0x1
 8048a4a:	e8 f1 fd ff ff       	call   8048840 <__printf_chk@plt>
 8048a4f:	c7 04 24 08 00 00 00 	movl   $0x8,(%esp)
 8048a56:	e8 85 fd ff ff       	call   80487e0 <exit@plt>
 8048a5b:	e8 34 06 00 00       	call   8049094 <initialize_bomb>
 8048a60:	83 ec 0c             	sub    $0xc,%esp
 8048a63:	68 ec 9f 04 08       	push   $0x8049fec
 8048a68:	e8 53 fd ff ff       	call   80487c0 <puts@plt>
 8048a6d:	c7 04 24 28 a0 04 08 	movl   $0x804a028,(%esp)
 8048a74:	e8 47 fd ff ff       	call   80487c0 <puts@plt>
 8048a79:	e8 11 07 00 00       	call   804918f <read_line>
 8048a7e:	89 04 24             	mov    %eax,(%esp)
 8048a81:	e8 aa 00 00 00       	call   8048b30 <phase_1>
 8048a86:	e8 07 08 00 00       	call   8049292 <phase_defused>
 8048a8b:	c7 04 24 54 a0 04 08 	movl   $0x804a054,(%esp)
 8048a92:	e8 29 fd ff ff       	call   80487c0 <puts@plt>
 8048a97:	e8 f3 06 00 00       	call   804918f <read_line>
 8048a9c:	89 04 24             	mov    %eax,(%esp)
 8048a9f:	e8 ad 00 00 00       	call   8048b51 <phase_2>
 8048aa4:	e8 e9 07 00 00       	call   8049292 <phase_defused>
 8048aa9:	c7 04 24 a1 9f 04 08 	movl   $0x8049fa1,(%esp)
 8048ab0:	e8 0b fd ff ff       	call   80487c0 <puts@plt>
 8048ab5:	e8 d5 06 00 00       	call   804918f <read_line>
 8048aba:	89 04 24             	mov    %eax,(%esp)
 8048abd:	e8 ff 00 00 00       	call   8048bc1 <phase_3>
 8048ac2:	e8 cb 07 00 00       	call   8049292 <phase_defused>
 8048ac7:	c7 04 24 bf 9f 04 08 	movl   $0x8049fbf,(%esp)
 8048ace:	e8 ed fc ff ff       	call   80487c0 <puts@plt>
 8048ad3:	e8 b7 06 00 00       	call   804918f <read_line>
 8048ad8:	89 04 24             	mov    %eax,(%esp)
 8048adb:	e8 08 02 00 00       	call   8048ce8 <phase_4>
 8048ae0:	e8 ad 07 00 00       	call   8049292 <phase_defused>
 8048ae5:	c7 04 24 80 a0 04 08 	movl   $0x804a080,(%esp)
 8048aec:	e8 cf fc ff ff       	call   80487c0 <puts@plt>
 8048af1:	e8 99 06 00 00       	call   804918f <read_line>
 8048af6:	89 04 24             	mov    %eax,(%esp)
 8048af9:	e8 58 02 00 00       	call   8048d56 <phase_5>
 8048afe:	e8 8f 07 00 00       	call   8049292 <phase_defused>
 8048b03:	c7 04 24 ce 9f 04 08 	movl   $0x8049fce,(%esp)
 8048b0a:	e8 b1 fc ff ff       	call   80487c0 <puts@plt>
 8048b0f:	e8 7b 06 00 00       	call   804918f <read_line>
 8048b14:	89 04 24             	mov    %eax,(%esp)
 8048b17:	e8 bf 02 00 00       	call   8048ddb <phase_6>
 8048b1c:	e8 71 07 00 00       	call   8049292 <phase_defused>
 8048b21:	b8 00 00 00 00       	mov    $0x0,%eax
 8048b26:	8d 65 f8             	lea    -0x8(%ebp),%esp
 8048b29:	59                   	pop    %ecx
 8048b2a:	5b                   	pop    %ebx
 8048b2b:	5d                   	pop    %ebp
 8048b2c:	8d 61 fc             	lea    -0x4(%ecx),%esp
 8048b2f:	c3                   	ret    

08048b30 <phase_1>:
 8048b30:	55                   	push   %ebp
 8048b31:	89 e5                	mov    %esp,%ebp
 8048b33:	83 ec 10             	sub    $0x10,%esp
 8048b36:	68 a4 a0 04 08       	push   $0x804a0a4
 8048b3b:	ff 75 08             	pushl  0x8(%ebp)
 8048b3e:	e8 e7 04 00 00       	call   804902a <strings_not_equal>
 8048b43:	83 c4 10             	add    $0x10,%esp
 8048b46:	85 c0                	test   %eax,%eax
 8048b48:	74 05                	je     8048b4f <phase_1+0x1f>
 8048b4a:	e8 de 05 00 00       	call   804912d <explode_bomb>
 8048b4f:	c9                   	leave  
 8048b50:	c3                   	ret    

08048b51 <phase_2>:
 8048b51:	55                   	push   %ebp
 8048b52:	89 e5                	mov    %esp,%ebp
 8048b54:	56                   	push   %esi
 8048b55:	53                   	push   %ebx
 8048b56:	83 ec 28             	sub    $0x28,%esp
 8048b59:	65 a1 14 00 00 00    	mov    %gs:0x14,%eax
 8048b5f:	89 45 f4             	mov    %eax,-0xc(%ebp)
 8048b62:	31 c0                	xor    %eax,%eax
 8048b64:	8d 45 dc             	lea    -0x24(%ebp),%eax
 8048b67:	50                   	push   %eax
 8048b68:	ff 75 08             	pushl  0x8(%ebp)
 8048b6b:	e8 e5 05 00 00       	call   8049155 <read_six_numbers>
 8048b70:	83 c4 10             	add    $0x10,%esp
 8048b73:	83 7d dc 02          	cmpl   $0x2,-0x24(%ebp)
 8048b77:	75 06                	jne    8048b7f <phase_2+0x2e>
 8048b79:	83 7d e0 03          	cmpl   $0x3,-0x20(%ebp)
 8048b7d:	74 05                	je     8048b84 <phase_2+0x33>
 8048b7f:	e8 a9 05 00 00       	call   804912d <explode_bomb>
 8048b84:	8d 5d dc             	lea    -0x24(%ebp),%ebx
 8048b87:	be 02 00 00 00       	mov    $0x2,%esi
 8048b8c:	89 f0                	mov    %esi,%eax
 8048b8e:	0f af 03             	imul   (%ebx),%eax
 8048b91:	03 43 04             	add    0x4(%ebx),%eax
 8048b94:	39 43 08             	cmp    %eax,0x8(%ebx)
 8048b97:	74 05                	je     8048b9e <phase_2+0x4d>
 8048b99:	e8 8f 05 00 00       	call   804912d <explode_bomb>
 8048b9e:	83 c6 01             	add    $0x1,%esi
 8048ba1:	83 c3 04             	add    $0x4,%ebx
 8048ba4:	83 fe 06             	cmp    $0x6,%esi
 8048ba7:	75 e3                	jne    8048b8c <phase_2+0x3b>
 8048ba9:	8b 45 f4             	mov    -0xc(%ebp),%eax
 8048bac:	65 33 05 14 00 00 00 	xor    %gs:0x14,%eax
 8048bb3:	74 05                	je     8048bba <phase_2+0x69>
 8048bb5:	e8 d6 fb ff ff       	call   8048790 <__stack_chk_fail@plt>
 8048bba:	8d 65 f8             	lea    -0x8(%ebp),%esp
 8048bbd:	5b                   	pop    %ebx
 8048bbe:	5e                   	pop    %esi
 8048bbf:	5d                   	pop    %ebp
 8048bc0:	c3                   	ret    

08048bc1 <phase_3>:
 8048bc1:	55                   	push   %ebp
 8048bc2:	89 e5                	mov    %esp,%ebp
 8048bc4:	83 ec 18             	sub    $0x18,%esp
 8048bc7:	65 a1 14 00 00 00    	mov    %gs:0x14,%eax
 8048bcd:	89 45 f4             	mov    %eax,-0xc(%ebp)
 8048bd0:	31 c0                	xor    %eax,%eax
 8048bd2:	8d 45 f0             	lea    -0x10(%ebp),%eax
 8048bd5:	50                   	push   %eax
 8048bd6:	8d 45 ec             	lea    -0x14(%ebp),%eax
 8048bd9:	50                   	push   %eax
 8048bda:	68 6f a2 04 08       	push   $0x804a26f
 8048bdf:	ff 75 08             	pushl  0x8(%ebp)
 8048be2:	e8 29 fc ff ff       	call   8048810 <__isoc99_sscanf@plt>
 8048be7:	83 c4 10             	add    $0x10,%esp
 8048bea:	83 f8 01             	cmp    $0x1,%eax
 8048bed:	7f 05                	jg     8048bf4 <phase_3+0x33>
 8048bef:	e8 39 05 00 00       	call   804912d <explode_bomb>
 8048bf4:	83 7d ec 07          	cmpl   $0x7,-0x14(%ebp)
 8048bf8:	77 65                	ja     8048c5f <phase_3+0x9e>
 8048bfa:	8b 45 ec             	mov    -0x14(%ebp),%eax
 8048bfd:	ff 24 85 00 a1 04 08 	jmp    *0x804a100(,%eax,4)
 8048c04:	b8 a8 01 00 00       	mov    $0x1a8,%eax
 8048c09:	eb 05                	jmp    8048c10 <phase_3+0x4f>
 8048c0b:	b8 00 00 00 00       	mov    $0x0,%eax
 8048c10:	2d 87 01 00 00       	sub    $0x187,%eax
 8048c15:	eb 05                	jmp    8048c1c <phase_3+0x5b>
 8048c17:	b8 00 00 00 00       	mov    $0x0,%eax
 8048c1c:	05 40 02 00 00       	add    $0x240,%eax
 8048c21:	eb 05                	jmp    8048c28 <phase_3+0x67>
 8048c23:	b8 00 00 00 00       	mov    $0x0,%eax
 8048c28:	2d 82 02 00 00       	sub    $0x282,%eax
 8048c2d:	eb 05                	jmp    8048c34 <phase_3+0x73>
 8048c2f:	b8 00 00 00 00       	mov    $0x0,%eax
 8048c34:	05 82 02 00 00       	add    $0x282,%eax
 8048c39:	eb 05                	jmp    8048c40 <phase_3+0x7f>
 8048c3b:	b8 00 00 00 00       	mov    $0x0,%eax
 8048c40:	2d 82 02 00 00       	sub    $0x282,%eax
 8048c45:	eb 05                	jmp    8048c4c <phase_3+0x8b>
 8048c47:	b8 00 00 00 00       	mov    $0x0,%eax
 8048c4c:	05 82 02 00 00       	add    $0x282,%eax
 8048c51:	eb 05                	jmp    8048c58 <phase_3+0x97>
 8048c53:	b8 00 00 00 00       	mov    $0x0,%eax
 8048c58:	2d 82 02 00 00       	sub    $0x282,%eax
 8048c5d:	eb 0a                	jmp    8048c69 <phase_3+0xa8>
 8048c5f:	e8 c9 04 00 00       	call   804912d <explode_bomb>
 8048c64:	b8 00 00 00 00       	mov    $0x0,%eax
 8048c69:	83 7d ec 05          	cmpl   $0x5,-0x14(%ebp)
 8048c6d:	7f 05                	jg     8048c74 <phase_3+0xb3>
 8048c6f:	3b 45 f0             	cmp    -0x10(%ebp),%eax
 8048c72:	74 05                	je     8048c79 <phase_3+0xb8>
 8048c74:	e8 b4 04 00 00       	call   804912d <explode_bomb>
 8048c79:	8b 45 f4             	mov    -0xc(%ebp),%eax
 8048c7c:	65 33 05 14 00 00 00 	xor    %gs:0x14,%eax
 8048c83:	74 05                	je     8048c8a <phase_3+0xc9>
 8048c85:	e8 06 fb ff ff       	call   8048790 <__stack_chk_fail@plt>
 8048c8a:	c9                   	leave  
 8048c8b:	c3                   	ret    

08048c8c <func4>:
 8048c8c:	55                   	push   %ebp
 8048c8d:	89 e5                	mov    %esp,%ebp
 8048c8f:	56                   	push   %esi
 8048c90:	53                   	push   %ebx
 8048c91:	8b 4d 08             	mov    0x8(%ebp),%ecx
 8048c94:	8b 5d 0c             	mov    0xc(%ebp),%ebx
 8048c97:	8b 75 10             	mov    0x10(%ebp),%esi
 8048c9a:	89 f0                	mov    %esi,%eax
 8048c9c:	29 d8                	sub    %ebx,%eax
 8048c9e:	89 c2                	mov    %eax,%edx
 8048ca0:	c1 ea 1f             	shr    $0x1f,%edx
 8048ca3:	01 d0                	add    %edx,%eax
 8048ca5:	d1 f8                	sar    %eax
 8048ca7:	8d 14 18             	lea    (%eax,%ebx,1),%edx
 8048caa:	39 ca                	cmp    %ecx,%edx
 8048cac:	7e 15                	jle    8048cc3 <func4+0x37>
 8048cae:	83 ec 04             	sub    $0x4,%esp
 8048cb1:	83 ea 01             	sub    $0x1,%edx
 8048cb4:	52                   	push   %edx
 8048cb5:	53                   	push   %ebx
 8048cb6:	51                   	push   %ecx
 8048cb7:	e8 d0 ff ff ff       	call   8048c8c <func4>
 8048cbc:	83 c4 10             	add    $0x10,%esp
 8048cbf:	01 c0                	add    %eax,%eax
 8048cc1:	eb 1e                	jmp    8048ce1 <func4+0x55>
 8048cc3:	b8 00 00 00 00       	mov    $0x0,%eax
 8048cc8:	39 ca                	cmp    %ecx,%edx
 8048cca:	7d 15                	jge    8048ce1 <func4+0x55>
 8048ccc:	83 ec 04             	sub    $0x4,%esp
 8048ccf:	56                   	push   %esi
 8048cd0:	83 c2 01             	add    $0x1,%edx
 8048cd3:	52                   	push   %edx
 8048cd4:	51                   	push   %ecx
 8048cd5:	e8 b2 ff ff ff       	call   8048c8c <func4>
 8048cda:	83 c4 10             	add    $0x10,%esp
 8048cdd:	8d 44 00 01          	lea    0x1(%eax,%eax,1),%eax
 8048ce1:	8d 65 f8             	lea    -0x8(%ebp),%esp
 8048ce4:	5b                   	pop    %ebx
 8048ce5:	5e                   	pop    %esi
 8048ce6:	5d                   	pop    %ebp
 8048ce7:	c3                   	ret    

08048ce8 <phase_4>:
 8048ce8:	55                   	push   %ebp
 8048ce9:	89 e5                	mov    %esp,%ebp
 8048ceb:	83 ec 18             	sub    $0x18,%esp
 8048cee:	65 a1 14 00 00 00    	mov    %gs:0x14,%eax
 8048cf4:	89 45 f4             	mov    %eax,-0xc(%ebp)
 8048cf7:	31 c0                	xor    %eax,%eax
 8048cf9:	8d 45 f0             	lea    -0x10(%ebp),%eax
 8048cfc:	50                   	push   %eax
 8048cfd:	8d 45 ec             	lea    -0x14(%ebp),%eax
 8048d00:	50                   	push   %eax
 8048d01:	68 6f a2 04 08       	push   $0x804a26f
 8048d06:	ff 75 08             	pushl  0x8(%ebp)
 8048d09:	e8 02 fb ff ff       	call   8048810 <__isoc99_sscanf@plt>
 8048d0e:	83 c4 10             	add    $0x10,%esp
 8048d11:	83 f8 02             	cmp    $0x2,%eax
 8048d14:	75 06                	jne    8048d1c <phase_4+0x34>
 8048d16:	83 7d ec 0e          	cmpl   $0xe,-0x14(%ebp)
 8048d1a:	76 05                	jbe    8048d21 <phase_4+0x39>
 8048d1c:	e8 0c 04 00 00       	call   804912d <explode_bomb>
 8048d21:	83 ec 04             	sub    $0x4,%esp
 8048d24:	6a 0e                	push   $0xe
 8048d26:	6a 00                	push   $0x0
 8048d28:	ff 75 ec             	pushl  -0x14(%ebp)
 8048d2b:	e8 5c ff ff ff       	call   8048c8c <func4>
 8048d30:	83 c4 10             	add    $0x10,%esp
 8048d33:	83 f8 04             	cmp    $0x4,%eax
 8048d36:	75 06                	jne    8048d3e <phase_4+0x56>
 8048d38:	83 7d f0 04          	cmpl   $0x4,-0x10(%ebp)
 8048d3c:	74 05                	je     8048d43 <phase_4+0x5b>
 8048d3e:	e8 ea 03 00 00       	call   804912d <explode_bomb>
 8048d43:	8b 45 f4             	mov    -0xc(%ebp),%eax
 8048d46:	65 33 05 14 00 00 00 	xor    %gs:0x14,%eax
 8048d4d:	74 05                	je     8048d54 <phase_4+0x6c>
 8048d4f:	e8 3c fa ff ff       	call   8048790 <__stack_chk_fail@plt>
 8048d54:	c9                   	leave  
 8048d55:	c3                   	ret    

08048d56 <phase_5>:
 8048d56:	55                   	push   %ebp
 8048d57:	89 e5                	mov    %esp,%ebp
 8048d59:	83 ec 18             	sub    $0x18,%esp
 8048d5c:	65 a1 14 00 00 00    	mov    %gs:0x14,%eax
 8048d62:	89 45 f4             	mov    %eax,-0xc(%ebp)
 8048d65:	31 c0                	xor    %eax,%eax
 8048d67:	8d 45 f0             	lea    -0x10(%ebp),%eax
 8048d6a:	50                   	push   %eax
 8048d6b:	8d 45 ec             	lea    -0x14(%ebp),%eax
 8048d6e:	50                   	push   %eax
 8048d6f:	68 6f a2 04 08       	push   $0x804a26f
 8048d74:	ff 75 08             	pushl  0x8(%ebp)
 8048d77:	e8 94 fa ff ff       	call   8048810 <__isoc99_sscanf@plt>
 8048d7c:	83 c4 10             	add    $0x10,%esp
 8048d7f:	83 f8 01             	cmp    $0x1,%eax
 8048d82:	7f 05                	jg     8048d89 <phase_5+0x33>
 8048d84:	e8 a4 03 00 00       	call   804912d <explode_bomb>
 8048d89:	8b 45 ec             	mov    -0x14(%ebp),%eax
 8048d8c:	83 e0 0f             	and    $0xf,%eax
 8048d8f:	89 45 ec             	mov    %eax,-0x14(%ebp)
 8048d92:	83 f8 0f             	cmp    $0xf,%eax
 8048d95:	74 2c                	je     8048dc3 <phase_5+0x6d>
 8048d97:	b9 00 00 00 00       	mov    $0x0,%ecx
 8048d9c:	ba 00 00 00 00       	mov    $0x0,%edx
 8048da1:	83 c2 01             	add    $0x1,%edx
 8048da4:	8b 04 85 20 a1 04 08 	mov    0x804a120(,%eax,4),%eax
 8048dab:	01 c1                	add    %eax,%ecx
 8048dad:	83 f8 0f             	cmp    $0xf,%eax
 8048db0:	75 ef                	jne    8048da1 <phase_5+0x4b>
 8048db2:	c7 45 ec 0f 00 00 00 	movl   $0xf,-0x14(%ebp)
 8048db9:	83 fa 0f             	cmp    $0xf,%edx
 8048dbc:	75 05                	jne    8048dc3 <phase_5+0x6d>
 8048dbe:	3b 4d f0             	cmp    -0x10(%ebp),%ecx
 8048dc1:	74 05                	je     8048dc8 <phase_5+0x72>
 8048dc3:	e8 65 03 00 00       	call   804912d <explode_bomb>
 8048dc8:	8b 45 f4             	mov    -0xc(%ebp),%eax
 8048dcb:	65 33 05 14 00 00 00 	xor    %gs:0x14,%eax
 8048dd2:	74 05                	je     8048dd9 <phase_5+0x83>
 8048dd4:	e8 b7 f9 ff ff       	call   8048790 <__stack_chk_fail@plt>
 8048dd9:	c9                   	leave  
 8048dda:	c3                   	ret    

08048ddb <phase_6>:
 8048ddb:	55                   	push   %ebp
 8048ddc:	89 e5                	mov    %esp,%ebp
 8048dde:	56                   	push   %esi
 8048ddf:	53                   	push   %ebx
 8048de0:	83 ec 48             	sub    $0x48,%esp
 8048de3:	65 a1 14 00 00 00    	mov    %gs:0x14,%eax
 8048de9:	89 45 f4             	mov    %eax,-0xc(%ebp)
 8048dec:	31 c0                	xor    %eax,%eax
 8048dee:	8d 45 c4             	lea    -0x3c(%ebp),%eax
 8048df1:	50                   	push   %eax
 8048df2:	ff 75 08             	pushl  0x8(%ebp)
 8048df5:	e8 5b 03 00 00       	call   8049155 <read_six_numbers>
 8048dfa:	83 c4 10             	add    $0x10,%esp
 8048dfd:	be 00 00 00 00       	mov    $0x0,%esi
 8048e02:	8b 44 b5 c4          	mov    -0x3c(%ebp,%esi,4),%eax
 8048e06:	83 e8 01             	sub    $0x1,%eax
 8048e09:	83 f8 05             	cmp    $0x5,%eax
 8048e0c:	76 05                	jbe    8048e13 <phase_6+0x38>
 8048e0e:	e8 1a 03 00 00       	call   804912d <explode_bomb>
 8048e13:	83 c6 01             	add    $0x1,%esi
 8048e16:	83 fe 06             	cmp    $0x6,%esi
 8048e19:	74 1b                	je     8048e36 <phase_6+0x5b>
 8048e1b:	89 f3                	mov    %esi,%ebx
 8048e1d:	8b 44 9d c4          	mov    -0x3c(%ebp,%ebx,4),%eax
 8048e21:	39 44 b5 c0          	cmp    %eax,-0x40(%ebp,%esi,4)
 8048e25:	75 05                	jne    8048e2c <phase_6+0x51>
 8048e27:	e8 01 03 00 00       	call   804912d <explode_bomb>
 8048e2c:	83 c3 01             	add    $0x1,%ebx
 8048e2f:	83 fb 05             	cmp    $0x5,%ebx
 8048e32:	7e e9                	jle    8048e1d <phase_6+0x42>
 8048e34:	eb cc                	jmp    8048e02 <phase_6+0x27>
 8048e36:	8d 45 c4             	lea    -0x3c(%ebp),%eax
 8048e39:	8d 5d dc             	lea    -0x24(%ebp),%ebx
 8048e3c:	b9 07 00 00 00       	mov    $0x7,%ecx
 8048e41:	89 ca                	mov    %ecx,%edx
 8048e43:	2b 10                	sub    (%eax),%edx
 8048e45:	89 10                	mov    %edx,(%eax)
 8048e47:	83 c0 04             	add    $0x4,%eax
 8048e4a:	39 c3                	cmp    %eax,%ebx
 8048e4c:	75 f3                	jne    8048e41 <phase_6+0x66>
 8048e4e:	bb 00 00 00 00       	mov    $0x0,%ebx
 8048e53:	eb 16                	jmp    8048e6b <phase_6+0x90>
 8048e55:	8b 52 08             	mov    0x8(%edx),%edx
 8048e58:	83 c0 01             	add    $0x1,%eax
 8048e5b:	39 c8                	cmp    %ecx,%eax
 8048e5d:	75 f6                	jne    8048e55 <phase_6+0x7a>
 8048e5f:	89 54 b5 dc          	mov    %edx,-0x24(%ebp,%esi,4)
 8048e63:	83 c3 01             	add    $0x1,%ebx
 8048e66:	83 fb 06             	cmp    $0x6,%ebx
 8048e69:	74 17                	je     8048e82 <phase_6+0xa7>
 8048e6b:	89 de                	mov    %ebx,%esi
 8048e6d:	8b 4c 9d c4          	mov    -0x3c(%ebp,%ebx,4),%ecx
 8048e71:	b8 01 00 00 00       	mov    $0x1,%eax
 8048e76:	ba 3c c1 04 08       	mov    $0x804c13c,%edx
 8048e7b:	83 f9 01             	cmp    $0x1,%ecx
 8048e7e:	7f d5                	jg     8048e55 <phase_6+0x7a>
 8048e80:	eb dd                	jmp    8048e5f <phase_6+0x84>
 8048e82:	8b 5d dc             	mov    -0x24(%ebp),%ebx
 8048e85:	8d 45 dc             	lea    -0x24(%ebp),%eax
 8048e88:	8d 75 f0             	lea    -0x10(%ebp),%esi
 8048e8b:	89 d9                	mov    %ebx,%ecx
 8048e8d:	8b 50 04             	mov    0x4(%eax),%edx
 8048e90:	89 51 08             	mov    %edx,0x8(%ecx)
 8048e93:	83 c0 04             	add    $0x4,%eax
 8048e96:	89 d1                	mov    %edx,%ecx
 8048e98:	39 c6                	cmp    %eax,%esi
 8048e9a:	75 f1                	jne    8048e8d <phase_6+0xb2>
 8048e9c:	c7 42 08 00 00 00 00 	movl   $0x0,0x8(%edx)
 8048ea3:	be 05 00 00 00       	mov    $0x5,%esi
 8048ea8:	8b 43 08             	mov    0x8(%ebx),%eax
 8048eab:	8b 00                	mov    (%eax),%eax
 8048ead:	39 03                	cmp    %eax,(%ebx)
 8048eaf:	7d 05                	jge    8048eb6 <phase_6+0xdb>
 8048eb1:	e8 77 02 00 00       	call   804912d <explode_bomb>
 8048eb6:	8b 5b 08             	mov    0x8(%ebx),%ebx
 8048eb9:	83 ee 01             	sub    $0x1,%esi
 8048ebc:	75 ea                	jne    8048ea8 <phase_6+0xcd>
 8048ebe:	8b 45 f4             	mov    -0xc(%ebp),%eax
 8048ec1:	65 33 05 14 00 00 00 	xor    %gs:0x14,%eax
 8048ec8:	74 05                	je     8048ecf <phase_6+0xf4>
 8048eca:	e8 c1 f8 ff ff       	call   8048790 <__stack_chk_fail@plt>
 8048ecf:	8d 65 f8             	lea    -0x8(%ebp),%esp
 8048ed2:	5b                   	pop    %ebx
 8048ed3:	5e                   	pop    %esi
 8048ed4:	5d                   	pop    %ebp
 8048ed5:	c3                   	ret    

08048ed6 <fun7>:
 8048ed6:	55                   	push   %ebp
 8048ed7:	89 e5                	mov    %esp,%ebp
 8048ed9:	53                   	push   %ebx
 8048eda:	83 ec 04             	sub    $0x4,%esp
 8048edd:	8b 55 08             	mov    0x8(%ebp),%edx
 8048ee0:	8b 4d 0c             	mov    0xc(%ebp),%ecx
 8048ee3:	85 d2                	test   %edx,%edx
 8048ee5:	74 37                	je     8048f1e <fun7+0x48>
 8048ee7:	8b 1a                	mov    (%edx),%ebx
 8048ee9:	39 cb                	cmp    %ecx,%ebx
 8048eeb:	7e 13                	jle    8048f00 <fun7+0x2a>
 8048eed:	83 ec 08             	sub    $0x8,%esp
 8048ef0:	51                   	push   %ecx
 8048ef1:	ff 72 04             	pushl  0x4(%edx)
 8048ef4:	e8 dd ff ff ff       	call   8048ed6 <fun7>
 8048ef9:	83 c4 10             	add    $0x10,%esp
 8048efc:	01 c0                	add    %eax,%eax
 8048efe:	eb 23                	jmp    8048f23 <fun7+0x4d>
 8048f00:	b8 00 00 00 00       	mov    $0x0,%eax
 8048f05:	39 cb                	cmp    %ecx,%ebx
 8048f07:	74 1a                	je     8048f23 <fun7+0x4d>
 8048f09:	83 ec 08             	sub    $0x8,%esp
 8048f0c:	51                   	push   %ecx
 8048f0d:	ff 72 08             	pushl  0x8(%edx)
 8048f10:	e8 c1 ff ff ff       	call   8048ed6 <fun7>
 8048f15:	83 c4 10             	add    $0x10,%esp
 8048f18:	8d 44 00 01          	lea    0x1(%eax,%eax,1),%eax
 8048f1c:	eb 05                	jmp    8048f23 <fun7+0x4d>
 8048f1e:	b8 ff ff ff ff       	mov    $0xffffffff,%eax
 8048f23:	8b 5d fc             	mov    -0x4(%ebp),%ebx
 8048f26:	c9                   	leave  
 8048f27:	c3                   	ret    

08048f28 <secret_phase>:
 8048f28:	55                   	push   %ebp
 8048f29:	89 e5                	mov    %esp,%ebp
 8048f2b:	53                   	push   %ebx
 8048f2c:	83 ec 04             	sub    $0x4,%esp
 8048f2f:	e8 5b 02 00 00       	call   804918f <read_line>
 8048f34:	83 ec 04             	sub    $0x4,%esp
 8048f37:	6a 0a                	push   $0xa
 8048f39:	6a 00                	push   $0x0
 8048f3b:	50                   	push   %eax
 8048f3c:	e8 3f f9 ff ff       	call   8048880 <strtol@plt>
 8048f41:	89 c3                	mov    %eax,%ebx
 8048f43:	8d 40 ff             	lea    -0x1(%eax),%eax
 8048f46:	83 c4 10             	add    $0x10,%esp
 8048f49:	3d e8 03 00 00       	cmp    $0x3e8,%eax
 8048f4e:	76 05                	jbe    8048f55 <secret_phase+0x2d>
 8048f50:	e8 d8 01 00 00       	call   804912d <explode_bomb>
 8048f55:	83 ec 08             	sub    $0x8,%esp
 8048f58:	53                   	push   %ebx
 8048f59:	68 88 c0 04 08       	push   $0x804c088
 8048f5e:	e8 73 ff ff ff       	call   8048ed6 <fun7>
 8048f63:	83 c4 10             	add    $0x10,%esp
 8048f66:	83 f8 04             	cmp    $0x4,%eax
 8048f69:	74 05                	je     8048f70 <secret_phase+0x48>
 8048f6b:	e8 bd 01 00 00       	call   804912d <explode_bomb>
 8048f70:	83 ec 0c             	sub    $0xc,%esp
 8048f73:	68 d0 a0 04 08       	push   $0x804a0d0
 8048f78:	e8 43 f8 ff ff       	call   80487c0 <puts@plt>
 8048f7d:	e8 10 03 00 00       	call   8049292 <phase_defused>
 8048f82:	83 c4 10             	add    $0x10,%esp
 8048f85:	8b 5d fc             	mov    -0x4(%ebp),%ebx
 8048f88:	c9                   	leave  
 8048f89:	c3                   	ret    

08048f8a <sig_handler>:
 8048f8a:	55                   	push   %ebp
 8048f8b:	89 e5                	mov    %esp,%ebp
 8048f8d:	83 ec 14             	sub    $0x14,%esp
 8048f90:	68 60 a1 04 08       	push   $0x804a160
 8048f95:	e8 26 f8 ff ff       	call   80487c0 <puts@plt>
 8048f9a:	c7 04 24 03 00 00 00 	movl   $0x3,(%esp)
 8048fa1:	e8 ca f7 ff ff       	call   8048770 <sleep@plt>
 8048fa6:	83 c4 08             	add    $0x8,%esp
 8048fa9:	68 22 a2 04 08       	push   $0x804a222
 8048fae:	6a 01                	push   $0x1
 8048fb0:	e8 8b f8 ff ff       	call   8048840 <__printf_chk@plt>
 8048fb5:	83 c4 04             	add    $0x4,%esp
 8048fb8:	ff 35 c4 c3 04 08    	pushl  0x804c3c4
 8048fbe:	e8 7d f7 ff ff       	call   8048740 <fflush@plt>
 8048fc3:	c7 04 24 01 00 00 00 	movl   $0x1,(%esp)
 8048fca:	e8 a1 f7 ff ff       	call   8048770 <sleep@plt>
 8048fcf:	c7 04 24 2a a2 04 08 	movl   $0x804a22a,(%esp)
 8048fd6:	e8 e5 f7 ff ff       	call   80487c0 <puts@plt>
 8048fdb:	c7 04 24 10 00 00 00 	movl   $0x10,(%esp)
 8048fe2:	e8 f9 f7 ff ff       	call   80487e0 <exit@plt>

08048fe7 <invalid_phase>:
 8048fe7:	55                   	push   %ebp
 8048fe8:	89 e5                	mov    %esp,%ebp
 8048fea:	83 ec 0c             	sub    $0xc,%esp
 8048fed:	ff 75 08             	pushl  0x8(%ebp)
 8048ff0:	68 32 a2 04 08       	push   $0x804a232
 8048ff5:	6a 01                	push   $0x1
 8048ff7:	e8 44 f8 ff ff       	call   8048840 <__printf_chk@plt>
 8048ffc:	c7 04 24 08 00 00 00 	movl   $0x8,(%esp)
 8049003:	e8 d8 f7 ff ff       	call   80487e0 <exit@plt>

08049008 <string_length>:
 8049008:	55                   	push   %ebp
 8049009:	89 e5                	mov    %esp,%ebp
 804900b:	8b 55 08             	mov    0x8(%ebp),%edx
 804900e:	80 3a 00             	cmpb   $0x0,(%edx)
 8049011:	74 10                	je     8049023 <string_length+0x1b>
 8049013:	b8 00 00 00 00       	mov    $0x0,%eax
 8049018:	83 c0 01             	add    $0x1,%eax
 804901b:	80 3c 02 00          	cmpb   $0x0,(%edx,%eax,1)
 804901f:	75 f7                	jne    8049018 <string_length+0x10>
 8049021:	eb 05                	jmp    8049028 <string_length+0x20>
 8049023:	b8 00 00 00 00       	mov    $0x0,%eax
 8049028:	5d                   	pop    %ebp
 8049029:	c3                   	ret    

0804902a <strings_not_equal>:
 804902a:	55                   	push   %ebp
 804902b:	89 e5                	mov    %esp,%ebp
 804902d:	57                   	push   %edi
 804902e:	56                   	push   %esi
 804902f:	53                   	push   %ebx
 8049030:	8b 5d 08             	mov    0x8(%ebp),%ebx
 8049033:	8b 75 0c             	mov    0xc(%ebp),%esi
 8049036:	53                   	push   %ebx
 8049037:	e8 cc ff ff ff       	call   8049008 <string_length>
 804903c:	89 c7                	mov    %eax,%edi
 804903e:	89 34 24             	mov    %esi,(%esp)
 8049041:	e8 c2 ff ff ff       	call   8049008 <string_length>
 8049046:	83 c4 04             	add    $0x4,%esp
 8049049:	ba 01 00 00 00       	mov    $0x1,%edx
 804904e:	39 c7                	cmp    %eax,%edi
 8049050:	75 38                	jne    804908a <strings_not_equal+0x60>
 8049052:	0f b6 03             	movzbl (%ebx),%eax
 8049055:	84 c0                	test   %al,%al
 8049057:	74 1e                	je     8049077 <strings_not_equal+0x4d>
 8049059:	3a 06                	cmp    (%esi),%al
 804905b:	74 06                	je     8049063 <strings_not_equal+0x39>
 804905d:	eb 1f                	jmp    804907e <strings_not_equal+0x54>
 804905f:	3a 06                	cmp    (%esi),%al
 8049061:	75 22                	jne    8049085 <strings_not_equal+0x5b>
 8049063:	83 c3 01             	add    $0x1,%ebx
 8049066:	83 c6 01             	add    $0x1,%esi
 8049069:	0f b6 03             	movzbl (%ebx),%eax
 804906c:	84 c0                	test   %al,%al
 804906e:	75 ef                	jne    804905f <strings_not_equal+0x35>
 8049070:	ba 00 00 00 00       	mov    $0x0,%edx
 8049075:	eb 13                	jmp    804908a <strings_not_equal+0x60>
 8049077:	ba 00 00 00 00       	mov    $0x0,%edx
 804907c:	eb 0c                	jmp    804908a <strings_not_equal+0x60>
 804907e:	ba 01 00 00 00       	mov    $0x1,%edx
 8049083:	eb 05                	jmp    804908a <strings_not_equal+0x60>
 8049085:	ba 01 00 00 00       	mov    $0x1,%edx
 804908a:	89 d0                	mov    %edx,%eax
 804908c:	8d 65 f4             	lea    -0xc(%ebp),%esp
 804908f:	5b                   	pop    %ebx
 8049090:	5e                   	pop    %esi
 8049091:	5f                   	pop    %edi
 8049092:	5d                   	pop    %ebp
 8049093:	c3                   	ret    

08049094 <initialize_bomb>:
 8049094:	55                   	push   %ebp
 8049095:	89 e5                	mov    %esp,%ebp
 8049097:	83 ec 10             	sub    $0x10,%esp
 804909a:	68 8a 8f 04 08       	push   $0x8048f8a
 804909f:	6a 02                	push   $0x2
 80490a1:	e8 ba f6 ff ff       	call   8048760 <signal@plt>
 80490a6:	83 c4 10             	add    $0x10,%esp
 80490a9:	c9                   	leave  
 80490aa:	c3                   	ret    

080490ab <initialize_bomb_solve>:
 80490ab:	55                   	push   %ebp
 80490ac:	89 e5                	mov    %esp,%ebp
 80490ae:	5d                   	pop    %ebp
 80490af:	c3                   	ret    

080490b0 <blank_line>:
 80490b0:	55                   	push   %ebp
 80490b1:	89 e5                	mov    %esp,%ebp
 80490b3:	56                   	push   %esi
 80490b4:	53                   	push   %ebx
 80490b5:	8b 75 08             	mov    0x8(%ebp),%esi
 80490b8:	eb 14                	jmp    80490ce <blank_line+0x1e>
 80490ba:	e8 f1 f7 ff ff       	call   80488b0 <__ctype_b_loc@plt>
 80490bf:	83 c6 01             	add    $0x1,%esi
 80490c2:	0f be db             	movsbl %bl,%ebx
 80490c5:	8b 00                	mov    (%eax),%eax
 80490c7:	f6 44 58 01 20       	testb  $0x20,0x1(%eax,%ebx,2)
 80490cc:	74 0e                	je     80490dc <blank_line+0x2c>
 80490ce:	0f b6 1e             	movzbl (%esi),%ebx
 80490d1:	84 db                	test   %bl,%bl
 80490d3:	75 e5                	jne    80490ba <blank_line+0xa>
 80490d5:	b8 01 00 00 00       	mov    $0x1,%eax
 80490da:	eb 05                	jmp    80490e1 <blank_line+0x31>
 80490dc:	b8 00 00 00 00       	mov    $0x0,%eax
 80490e1:	5b                   	pop    %ebx
 80490e2:	5e                   	pop    %esi
 80490e3:	5d                   	pop    %ebp
 80490e4:	c3                   	ret    

080490e5 <skip>:
 80490e5:	55                   	push   %ebp
 80490e6:	89 e5                	mov    %esp,%ebp
 80490e8:	53                   	push   %ebx
 80490e9:	83 ec 04             	sub    $0x4,%esp
 80490ec:	83 ec 04             	sub    $0x4,%esp
 80490ef:	ff 35 d0 c3 04 08    	pushl  0x804c3d0
 80490f5:	6a 50                	push   $0x50
 80490f7:	a1 cc c3 04 08       	mov    0x804c3cc,%eax
 80490fc:	8d 04 80             	lea    (%eax,%eax,4),%eax
 80490ff:	c1 e0 04             	shl    $0x4,%eax
 8049102:	05 e0 c3 04 08       	add    $0x804c3e0,%eax
 8049107:	50                   	push   %eax
 8049108:	e8 43 f6 ff ff       	call   8048750 <fgets@plt>
 804910d:	89 c3                	mov    %eax,%ebx
 804910f:	83 c4 10             	add    $0x10,%esp
 8049112:	85 c0                	test   %eax,%eax
 8049114:	74 10                	je     8049126 <skip+0x41>
 8049116:	83 ec 0c             	sub    $0xc,%esp
 8049119:	50                   	push   %eax
 804911a:	e8 91 ff ff ff       	call   80490b0 <blank_line>
 804911f:	83 c4 10             	add    $0x10,%esp
 8049122:	85 c0                	test   %eax,%eax
 8049124:	75 c6                	jne    80490ec <skip+0x7>
 8049126:	89 d8                	mov    %ebx,%eax
 8049128:	8b 5d fc             	mov    -0x4(%ebp),%ebx
 804912b:	c9                   	leave  
 804912c:	c3                   	ret    

0804912d <explode_bomb>:
 804912d:	55                   	push   %ebp
 804912e:	89 e5                	mov    %esp,%ebp
 8049130:	83 ec 14             	sub    $0x14,%esp
 8049133:	68 43 a2 04 08       	push   $0x804a243
 8049138:	e8 83 f6 ff ff       	call   80487c0 <puts@plt>
 804913d:	c7 04 24 4c a2 04 08 	movl   $0x804a24c,(%esp)
 8049144:	e8 77 f6 ff ff       	call   80487c0 <puts@plt>
 8049149:	c7 04 24 08 00 00 00 	movl   $0x8,(%esp)
 8049150:	e8 8b f6 ff ff       	call   80487e0 <exit@plt>

08049155 <read_six_numbers>:
 8049155:	55                   	push   %ebp
 8049156:	89 e5                	mov    %esp,%ebp
 8049158:	83 ec 08             	sub    $0x8,%esp
 804915b:	8b 45 0c             	mov    0xc(%ebp),%eax
 804915e:	8d 50 14             	lea    0x14(%eax),%edx
 8049161:	52                   	push   %edx
 8049162:	8d 50 10             	lea    0x10(%eax),%edx
 8049165:	52                   	push   %edx
 8049166:	8d 50 0c             	lea    0xc(%eax),%edx
 8049169:	52                   	push   %edx
 804916a:	8d 50 08             	lea    0x8(%eax),%edx
 804916d:	52                   	push   %edx
 804916e:	8d 50 04             	lea    0x4(%eax),%edx
 8049171:	52                   	push   %edx
 8049172:	50                   	push   %eax
 8049173:	68 63 a2 04 08       	push   $0x804a263
 8049178:	ff 75 08             	pushl  0x8(%ebp)
 804917b:	e8 90 f6 ff ff       	call   8048810 <__isoc99_sscanf@plt>
 8049180:	83 c4 20             	add    $0x20,%esp
 8049183:	83 f8 05             	cmp    $0x5,%eax
 8049186:	7f 05                	jg     804918d <read_six_numbers+0x38>
 8049188:	e8 a0 ff ff ff       	call   804912d <explode_bomb>
 804918d:	c9                   	leave  
 804918e:	c3                   	ret    

0804918f <read_line>:
 804918f:	55                   	push   %ebp
 8049190:	89 e5                	mov    %esp,%ebp
 8049192:	57                   	push   %edi
 8049193:	56                   	push   %esi
 8049194:	53                   	push   %ebx
 8049195:	83 ec 0c             	sub    $0xc,%esp
 8049198:	e8 48 ff ff ff       	call   80490e5 <skip>
 804919d:	85 c0                	test   %eax,%eax
 804919f:	75 70                	jne    8049211 <read_line+0x82>
 80491a1:	a1 c0 c3 04 08       	mov    0x804c3c0,%eax
 80491a6:	39 05 d0 c3 04 08    	cmp    %eax,0x804c3d0
 80491ac:	75 19                	jne    80491c7 <read_line+0x38>
 80491ae:	83 ec 0c             	sub    $0xc,%esp
 80491b1:	68 75 a2 04 08       	push   $0x804a275
 80491b6:	e8 05 f6 ff ff       	call   80487c0 <puts@plt>
 80491bb:	c7 04 24 08 00 00 00 	movl   $0x8,(%esp)
 80491c2:	e8 19 f6 ff ff       	call   80487e0 <exit@plt>
 80491c7:	83 ec 0c             	sub    $0xc,%esp
 80491ca:	68 93 a2 04 08       	push   $0x804a293
 80491cf:	e8 dc f5 ff ff       	call   80487b0 <getenv@plt>
 80491d4:	83 c4 10             	add    $0x10,%esp
 80491d7:	85 c0                	test   %eax,%eax
 80491d9:	74 0a                	je     80491e5 <read_line+0x56>
 80491db:	83 ec 0c             	sub    $0xc,%esp
 80491de:	6a 00                	push   $0x0
 80491e0:	e8 fb f5 ff ff       	call   80487e0 <exit@plt>
 80491e5:	a1 c0 c3 04 08       	mov    0x804c3c0,%eax
 80491ea:	a3 d0 c3 04 08       	mov    %eax,0x804c3d0
 80491ef:	e8 f1 fe ff ff       	call   80490e5 <skip>
 80491f4:	85 c0                	test   %eax,%eax
 80491f6:	75 19                	jne    8049211 <read_line+0x82>
 80491f8:	83 ec 0c             	sub    $0xc,%esp
 80491fb:	68 75 a2 04 08       	push   $0x804a275
 8049200:	e8 bb f5 ff ff       	call   80487c0 <puts@plt>
 8049205:	c7 04 24 00 00 00 00 	movl   $0x0,(%esp)
 804920c:	e8 cf f5 ff ff       	call   80487e0 <exit@plt>
 8049211:	8b 15 cc c3 04 08    	mov    0x804c3cc,%edx
 8049217:	8d 1c 92             	lea    (%edx,%edx,4),%ebx
 804921a:	c1 e3 04             	shl    $0x4,%ebx
 804921d:	81 c3 e0 c3 04 08    	add    $0x804c3e0,%ebx
 8049223:	b8 00 00 00 00       	mov    $0x0,%eax
 8049228:	b9 ff ff ff ff       	mov    $0xffffffff,%ecx
 804922d:	89 df                	mov    %ebx,%edi
 804922f:	f2 ae                	repnz scas %es:(%edi),%al
 8049231:	f7 d1                	not    %ecx
 8049233:	83 e9 01             	sub    $0x1,%ecx
 8049236:	83 f9 4e             	cmp    $0x4e,%ecx
 8049239:	7e 36                	jle    8049271 <read_line+0xe2>
 804923b:	83 ec 0c             	sub    $0xc,%esp
 804923e:	68 9e a2 04 08       	push   $0x804a29e
 8049243:	e8 78 f5 ff ff       	call   80487c0 <puts@plt>
 8049248:	a1 cc c3 04 08       	mov    0x804c3cc,%eax
 804924d:	8d 50 01             	lea    0x1(%eax),%edx
 8049250:	89 15 cc c3 04 08    	mov    %edx,0x804c3cc
 8049256:	6b c0 50             	imul   $0x50,%eax,%eax
 8049259:	05 e0 c3 04 08       	add    $0x804c3e0,%eax
 804925e:	be b9 a2 04 08       	mov    $0x804a2b9,%esi
 8049263:	b9 04 00 00 00       	mov    $0x4,%ecx
 8049268:	89 c7                	mov    %eax,%edi
 804926a:	f3 a5                	rep movsl %ds:(%esi),%es:(%edi)
 804926c:	e8 bc fe ff ff       	call   804912d <explode_bomb>
 8049271:	8d 04 92             	lea    (%edx,%edx,4),%eax
 8049274:	c1 e0 04             	shl    $0x4,%eax
 8049277:	c6 84 01 df c3 04 08 	movb   $0x0,0x804c3df(%ecx,%eax,1)
 804927e:	00 
 804927f:	83 c2 01             	add    $0x1,%edx
 8049282:	89 15 cc c3 04 08    	mov    %edx,0x804c3cc
 8049288:	89 d8                	mov    %ebx,%eax
 804928a:	8d 65 f4             	lea    -0xc(%ebp),%esp
 804928d:	5b                   	pop    %ebx
 804928e:	5e                   	pop    %esi
 804928f:	5f                   	pop    %edi
 8049290:	5d                   	pop    %ebp
 8049291:	c3                   	ret    

08049292 <phase_defused>:
 8049292:	55                   	push   %ebp
 8049293:	89 e5                	mov    %esp,%ebp
 8049295:	83 ec 68             	sub    $0x68,%esp
 8049298:	65 a1 14 00 00 00    	mov    %gs:0x14,%eax
 804929e:	89 45 f4             	mov    %eax,-0xc(%ebp)
 80492a1:	31 c0                	xor    %eax,%eax
 80492a3:	83 3d cc c3 04 08 06 	cmpl   $0x6,0x804c3cc
 80492aa:	75 6f                	jne    804931b <phase_defused+0x89>
 80492ac:	83 ec 0c             	sub    $0xc,%esp
 80492af:	8d 45 a4             	lea    -0x5c(%ebp),%eax
 80492b2:	50                   	push   %eax
 80492b3:	8d 45 a0             	lea    -0x60(%ebp),%eax
 80492b6:	50                   	push   %eax
 80492b7:	8d 45 9c             	lea    -0x64(%ebp),%eax
 80492ba:	50                   	push   %eax
 80492bb:	68 c9 a2 04 08       	push   $0x804a2c9
 80492c0:	68 d0 c4 04 08       	push   $0x804c4d0
 80492c5:	e8 46 f5 ff ff       	call   8048810 <__isoc99_sscanf@plt>
 80492ca:	83 c4 20             	add    $0x20,%esp
 80492cd:	83 f8 03             	cmp    $0x3,%eax
 80492d0:	75 39                	jne    804930b <phase_defused+0x79>
 80492d2:	83 ec 08             	sub    $0x8,%esp
 80492d5:	68 d2 a2 04 08       	push   $0x804a2d2
 80492da:	8d 45 a4             	lea    -0x5c(%ebp),%eax
 80492dd:	50                   	push   %eax
 80492de:	e8 47 fd ff ff       	call   804902a <strings_not_equal>
 80492e3:	83 c4 10             	add    $0x10,%esp
 80492e6:	85 c0                	test   %eax,%eax
 80492e8:	75 21                	jne    804930b <phase_defused+0x79>
 80492ea:	83 ec 0c             	sub    $0xc,%esp
 80492ed:	68 98 a1 04 08       	push   $0x804a198
 80492f2:	e8 c9 f4 ff ff       	call   80487c0 <puts@plt>
 80492f7:	c7 04 24 c0 a1 04 08 	movl   $0x804a1c0,(%esp)
 80492fe:	e8 bd f4 ff ff       	call   80487c0 <puts@plt>
 8049303:	e8 20 fc ff ff       	call   8048f28 <secret_phase>
 8049308:	83 c4 10             	add    $0x10,%esp
 804930b:	83 ec 0c             	sub    $0xc,%esp
 804930e:	68 f8 a1 04 08       	push   $0x804a1f8
 8049313:	e8 a8 f4 ff ff       	call   80487c0 <puts@plt>
 8049318:	83 c4 10             	add    $0x10,%esp
 804931b:	8b 45 f4             	mov    -0xc(%ebp),%eax
 804931e:	65 33 05 14 00 00 00 	xor    %gs:0x14,%eax
 8049325:	74 05                	je     804932c <phase_defused+0x9a>
 8049327:	e8 64 f4 ff ff       	call   8048790 <__stack_chk_fail@plt>
 804932c:	c9                   	leave  
 804932d:	c3                   	ret    

0804932e <sigalrm_handler>:
 804932e:	55                   	push   %ebp
 804932f:	89 e5                	mov    %esp,%ebp
 8049331:	83 ec 08             	sub    $0x8,%esp
 8049334:	6a 00                	push   $0x0
 8049336:	68 2c a3 04 08       	push   $0x804a32c
 804933b:	6a 01                	push   $0x1
 804933d:	ff 35 a0 c3 04 08    	pushl  0x804c3a0
 8049343:	e8 18 f5 ff ff       	call   8048860 <__fprintf_chk@plt>
 8049348:	c7 04 24 01 00 00 00 	movl   $0x1,(%esp)
 804934f:	e8 8c f4 ff ff       	call   80487e0 <exit@plt>

08049354 <rio_readlineb>:
 8049354:	55                   	push   %ebp
 8049355:	89 e5                	mov    %esp,%ebp
 8049357:	57                   	push   %edi
 8049358:	56                   	push   %esi
 8049359:	53                   	push   %ebx
 804935a:	83 ec 2c             	sub    $0x2c,%esp
 804935d:	89 c3                	mov    %eax,%ebx
 804935f:	89 d7                	mov    %edx,%edi
 8049361:	89 c8                	mov    %ecx,%eax
 8049363:	89 4d cc             	mov    %ecx,-0x34(%ebp)
 8049366:	65 8b 0d 14 00 00 00 	mov    %gs:0x14,%ecx
 804936d:	89 4d e4             	mov    %ecx,-0x1c(%ebp)
 8049370:	31 c9                	xor    %ecx,%ecx
 8049372:	83 f8 01             	cmp    $0x1,%eax
 8049375:	76 7b                	jbe    80493f2 <rio_readlineb+0x9e>
 8049377:	89 45 d0             	mov    %eax,-0x30(%ebp)
 804937a:	c7 45 d4 01 00 00 00 	movl   $0x1,-0x2c(%ebp)
 8049381:	8d 73 0c             	lea    0xc(%ebx),%esi
 8049384:	eb 2d                	jmp    80493b3 <rio_readlineb+0x5f>
 8049386:	83 ec 04             	sub    $0x4,%esp
 8049389:	68 00 20 00 00       	push   $0x2000
 804938e:	56                   	push   %esi
 804938f:	ff 33                	pushl  (%ebx)
 8049391:	e8 9a f3 ff ff       	call   8048730 <read@plt>
 8049396:	89 43 04             	mov    %eax,0x4(%ebx)
 8049399:	83 c4 10             	add    $0x10,%esp
 804939c:	85 c0                	test   %eax,%eax
 804939e:	79 0c                	jns    80493ac <rio_readlineb+0x58>
 80493a0:	e8 8b f4 ff ff       	call   8048830 <__errno_location@plt>
 80493a5:	83 38 04             	cmpl   $0x4,(%eax)
 80493a8:	74 09                	je     80493b3 <rio_readlineb+0x5f>
 80493aa:	eb 69                	jmp    8049415 <rio_readlineb+0xc1>
 80493ac:	85 c0                	test   %eax,%eax
 80493ae:	74 6a                	je     804941a <rio_readlineb+0xc6>
 80493b0:	89 73 08             	mov    %esi,0x8(%ebx)
 80493b3:	8b 43 04             	mov    0x4(%ebx),%eax
 80493b6:	85 c0                	test   %eax,%eax
 80493b8:	7e cc                	jle    8049386 <rio_readlineb+0x32>
 80493ba:	8b 4b 08             	mov    0x8(%ebx),%ecx
 80493bd:	0f b6 11             	movzbl (%ecx),%edx
 80493c0:	88 55 e3             	mov    %dl,-0x1d(%ebp)
 80493c3:	83 c1 01             	add    $0x1,%ecx
 80493c6:	89 4b 08             	mov    %ecx,0x8(%ebx)
 80493c9:	83 e8 01             	sub    $0x1,%eax
 80493cc:	89 43 04             	mov    %eax,0x4(%ebx)
 80493cf:	83 c7 01             	add    $0x1,%edi
 80493d2:	88 57 ff             	mov    %dl,-0x1(%edi)
 80493d5:	80 fa 0a             	cmp    $0xa,%dl
 80493d8:	75 0a                	jne    80493e4 <rio_readlineb+0x90>
 80493da:	eb 25                	jmp    8049401 <rio_readlineb+0xad>
 80493dc:	83 7d d4 01          	cmpl   $0x1,-0x2c(%ebp)
 80493e0:	75 1f                	jne    8049401 <rio_readlineb+0xad>
 80493e2:	eb 23                	jmp    8049407 <rio_readlineb+0xb3>
 80493e4:	83 45 d4 01          	addl   $0x1,-0x2c(%ebp)
 80493e8:	8b 45 d4             	mov    -0x2c(%ebp),%eax
 80493eb:	3b 45 d0             	cmp    -0x30(%ebp),%eax
 80493ee:	74 0b                	je     80493fb <rio_readlineb+0xa7>
 80493f0:	eb c1                	jmp    80493b3 <rio_readlineb+0x5f>
 80493f2:	c7 45 d4 01 00 00 00 	movl   $0x1,-0x2c(%ebp)
 80493f9:	eb 06                	jmp    8049401 <rio_readlineb+0xad>
 80493fb:	8b 45 cc             	mov    -0x34(%ebp),%eax
 80493fe:	89 45 d4             	mov    %eax,-0x2c(%ebp)
 8049401:	c6 07 00             	movb   $0x0,(%edi)
 8049404:	8b 45 d4             	mov    -0x2c(%ebp),%eax
 8049407:	8b 4d e4             	mov    -0x1c(%ebp),%ecx
 804940a:	65 33 0d 14 00 00 00 	xor    %gs:0x14,%ecx
 8049411:	74 17                	je     804942a <rio_readlineb+0xd6>
 8049413:	eb 10                	jmp    8049425 <rio_readlineb+0xd1>
 8049415:	b8 ff ff ff ff       	mov    $0xffffffff,%eax
 804941a:	85 c0                	test   %eax,%eax
 804941c:	74 be                	je     80493dc <rio_readlineb+0x88>
 804941e:	b8 ff ff ff ff       	mov    $0xffffffff,%eax
 8049423:	eb e2                	jmp    8049407 <rio_readlineb+0xb3>
 8049425:	e8 66 f3 ff ff       	call   8048790 <__stack_chk_fail@plt>
 804942a:	8d 65 f4             	lea    -0xc(%ebp),%esp
 804942d:	5b                   	pop    %ebx
 804942e:	5e                   	pop    %esi
 804942f:	5f                   	pop    %edi
 8049430:	5d                   	pop    %ebp
 8049431:	c3                   	ret    

08049432 <submitr>:
 8049432:	55                   	push   %ebp
 8049433:	89 e5                	mov    %esp,%ebp
 8049435:	57                   	push   %edi
 8049436:	56                   	push   %esi
 8049437:	53                   	push   %ebx
 8049438:	81 ec 60 a0 00 00    	sub    $0xa060,%esp
 804943e:	8b 75 08             	mov    0x8(%ebp),%esi
 8049441:	8b 45 10             	mov    0x10(%ebp),%eax
 8049444:	89 85 b0 5f ff ff    	mov    %eax,-0xa050(%ebp)
 804944a:	8b 45 14             	mov    0x14(%ebp),%eax
 804944d:	89 85 ac 5f ff ff    	mov    %eax,-0xa054(%ebp)
 8049453:	8b 45 18             	mov    0x18(%ebp),%eax
 8049456:	89 85 a8 5f ff ff    	mov    %eax,-0xa058(%ebp)
 804945c:	8b 5d 1c             	mov    0x1c(%ebp),%ebx
 804945f:	8b 45 20             	mov    0x20(%ebp),%eax
 8049462:	89 85 a4 5f ff ff    	mov    %eax,-0xa05c(%ebp)
 8049468:	65 a1 14 00 00 00    	mov    %gs:0x14,%eax
 804946e:	89 45 e4             	mov    %eax,-0x1c(%ebp)
 8049471:	31 c0                	xor    %eax,%eax
 8049473:	c7 85 c4 5f ff ff 00 	movl   $0x0,-0xa03c(%ebp)
 804947a:	00 00 00 
 804947d:	6a 00                	push   $0x0
 804947f:	6a 01                	push   $0x1
 8049481:	6a 02                	push   $0x2
 8049483:	e8 c8 f3 ff ff       	call   8048850 <socket@plt>
 8049488:	89 85 b4 5f ff ff    	mov    %eax,-0xa04c(%ebp)
 804948e:	83 c4 10             	add    $0x10,%esp
 8049491:	85 c0                	test   %eax,%eax
 8049493:	79 54                	jns    80494e9 <submitr+0xb7>
 8049495:	8b 85 a4 5f ff ff    	mov    -0xa05c(%ebp),%eax
 804949b:	c7 00 45 72 72 6f    	movl   $0x6f727245,(%eax)
 80494a1:	c7 40 04 72 3a 20 43 	movl   $0x43203a72,0x4(%eax)
 80494a8:	c7 40 08 6c 69 65 6e 	movl   $0x6e65696c,0x8(%eax)
 80494af:	c7 40 0c 74 20 75 6e 	movl   $0x6e752074,0xc(%eax)
 80494b6:	c7 40 10 61 62 6c 65 	movl   $0x656c6261,0x10(%eax)
 80494bd:	c7 40 14 20 74 6f 20 	movl   $0x206f7420,0x14(%eax)
 80494c4:	c7 40 18 63 72 65 61 	movl   $0x61657263,0x18(%eax)
 80494cb:	c7 40 1c 74 65 20 73 	movl   $0x73206574,0x1c(%eax)
 80494d2:	c7 40 20 6f 63 6b 65 	movl   $0x656b636f,0x20(%eax)
 80494d9:	66 c7 40 24 74 00    	movw   $0x74,0x24(%eax)
 80494df:	b8 ff ff ff ff       	mov    $0xffffffff,%eax
 80494e4:	e9 a0 06 00 00       	jmp    8049b89 <submitr+0x757>
 80494e9:	83 ec 0c             	sub    $0xc,%esp
 80494ec:	56                   	push   %esi
 80494ed:	e8 7e f3 ff ff       	call   8048870 <gethostbyname@plt>
 80494f2:	83 c4 10             	add    $0x10,%esp
 80494f5:	85 c0                	test   %eax,%eax
 80494f7:	75 77                	jne    8049570 <submitr+0x13e>
 80494f9:	8b 85 a4 5f ff ff    	mov    -0xa05c(%ebp),%eax
 80494ff:	c7 00 45 72 72 6f    	movl   $0x6f727245,(%eax)
 8049505:	c7 40 04 72 3a 20 44 	movl   $0x44203a72,0x4(%eax)
 804950c:	c7 40 08 4e 53 20 69 	movl   $0x6920534e,0x8(%eax)
 8049513:	c7 40 0c 73 20 75 6e 	movl   $0x6e752073,0xc(%eax)
 804951a:	c7 40 10 61 62 6c 65 	movl   $0x656c6261,0x10(%eax)
 8049521:	c7 40 14 20 74 6f 20 	movl   $0x206f7420,0x14(%eax)
 8049528:	c7 40 18 72 65 73 6f 	movl   $0x6f736572,0x18(%eax)
 804952f:	c7 40 1c 6c 76 65 20 	movl   $0x2065766c,0x1c(%eax)
 8049536:	c7 40 20 73 65 72 76 	movl   $0x76726573,0x20(%eax)
 804953d:	c7 40 24 65 72 20 61 	movl   $0x61207265,0x24(%eax)
 8049544:	c7 40 28 64 64 72 65 	movl   $0x65726464,0x28(%eax)
 804954b:	66 c7 40 2c 73 73    	movw   $0x7373,0x2c(%eax)
 8049551:	c6 40 2e 00          	movb   $0x0,0x2e(%eax)
 8049555:	83 ec 0c             	sub    $0xc,%esp
 8049558:	ff b5 b4 5f ff ff    	pushl  -0xa04c(%ebp)
 804955e:	e8 3d f3 ff ff       	call   80488a0 <close@plt>
 8049563:	83 c4 10             	add    $0x10,%esp
 8049566:	b8 ff ff ff ff       	mov    $0xffffffff,%eax
 804956b:	e9 19 06 00 00       	jmp    8049b89 <submitr+0x757>
 8049570:	8d b5 c8 5f ff ff    	lea    -0xa038(%ebp),%esi
 8049576:	c7 85 c8 5f ff ff 00 	movl   $0x0,-0xa038(%ebp)
 804957d:	00 00 00 
 8049580:	c7 85 cc 5f ff ff 00 	movl   $0x0,-0xa034(%ebp)
 8049587:	00 00 00 
 804958a:	c7 85 d0 5f ff ff 00 	movl   $0x0,-0xa030(%ebp)
 8049591:	00 00 00 
 8049594:	c7 85 d4 5f ff ff 00 	movl   $0x0,-0xa02c(%ebp)
 804959b:	00 00 00 
 804959e:	66 c7 85 c8 5f ff ff 	movw   $0x2,-0xa038(%ebp)
 80495a5:	02 00 
 80495a7:	6a 0c                	push   $0xc
 80495a9:	ff 70 0c             	pushl  0xc(%eax)
 80495ac:	8b 40 10             	mov    0x10(%eax),%eax
 80495af:	ff 30                	pushl  (%eax)
 80495b1:	8d 85 cc 5f ff ff    	lea    -0xa034(%ebp),%eax
 80495b7:	50                   	push   %eax
 80495b8:	e8 13 f2 ff ff       	call   80487d0 <__memmove_chk@plt>
 80495bd:	0f b7 45 0c          	movzwl 0xc(%ebp),%eax
 80495c1:	66 c1 c8 08          	ror    $0x8,%ax
 80495c5:	66 89 85 ca 5f ff ff 	mov    %ax,-0xa036(%ebp)
 80495cc:	83 c4 0c             	add    $0xc,%esp
 80495cf:	6a 10                	push   $0x10
 80495d1:	56                   	push   %esi
 80495d2:	ff b5 b4 5f ff ff    	pushl  -0xa04c(%ebp)
 80495d8:	e8 b3 f2 ff ff       	call   8048890 <connect@plt>
 80495dd:	83 c4 10             	add    $0x10,%esp
 80495e0:	85 c0                	test   %eax,%eax
 80495e2:	79 69                	jns    804964d <submitr+0x21b>
 80495e4:	8b 85 a4 5f ff ff    	mov    -0xa05c(%ebp),%eax
 80495ea:	c7 00 45 72 72 6f    	movl   $0x6f727245,(%eax)
 80495f0:	c7 40 04 72 3a 20 55 	movl   $0x55203a72,0x4(%eax)
 80495f7:	c7 40 08 6e 61 62 6c 	movl   $0x6c62616e,0x8(%eax)
 80495fe:	c7 40 0c 65 20 74 6f 	movl   $0x6f742065,0xc(%eax)
 8049605:	c7 40 10 20 63 6f 6e 	movl   $0x6e6f6320,0x10(%eax)
 804960c:	c7 40 14 6e 65 63 74 	movl   $0x7463656e,0x14(%eax)
 8049613:	c7 40 18 20 74 6f 20 	movl   $0x206f7420,0x18(%eax)
 804961a:	c7 40 1c 74 68 65 20 	movl   $0x20656874,0x1c(%eax)
 8049621:	c7 40 20 73 65 72 76 	movl   $0x76726573,0x20(%eax)
 8049628:	66 c7 40 24 65 72    	movw   $0x7265,0x24(%eax)
 804962e:	c6 40 26 00          	movb   $0x0,0x26(%eax)
 8049632:	83 ec 0c             	sub    $0xc,%esp
 8049635:	ff b5 b4 5f ff ff    	pushl  -0xa04c(%ebp)
 804963b:	e8 60 f2 ff ff       	call   80488a0 <close@plt>
 8049640:	83 c4 10             	add    $0x10,%esp
 8049643:	b8 ff ff ff ff       	mov    $0xffffffff,%eax
 8049648:	e9 3c 05 00 00       	jmp    8049b89 <submitr+0x757>
 804964d:	ba ff ff ff ff       	mov    $0xffffffff,%edx
 8049652:	b8 00 00 00 00       	mov    $0x0,%eax
 8049657:	89 d1                	mov    %edx,%ecx
 8049659:	89 df                	mov    %ebx,%edi
 804965b:	f2 ae                	repnz scas %es:(%edi),%al
 804965d:	89 ce                	mov    %ecx,%esi
 804965f:	f7 d6                	not    %esi
 8049661:	89 d1                	mov    %edx,%ecx
 8049663:	8b bd b0 5f ff ff    	mov    -0xa050(%ebp),%edi
 8049669:	f2 ae                	repnz scas %es:(%edi),%al
 804966b:	89 8d a0 5f ff ff    	mov    %ecx,-0xa060(%ebp)
 8049671:	89 d1                	mov    %edx,%ecx
 8049673:	8b bd ac 5f ff ff    	mov    -0xa054(%ebp),%edi
 8049679:	f2 ae                	repnz scas %es:(%edi),%al
 804967b:	89 cf                	mov    %ecx,%edi
 804967d:	f7 d7                	not    %edi
 804967f:	89 bd 9c 5f ff ff    	mov    %edi,-0xa064(%ebp)
 8049685:	89 d1                	mov    %edx,%ecx
 8049687:	8b bd a8 5f ff ff    	mov    -0xa058(%ebp),%edi
 804968d:	f2 ae                	repnz scas %es:(%edi),%al
 804968f:	8b 95 9c 5f ff ff    	mov    -0xa064(%ebp),%edx
 8049695:	2b 95 a0 5f ff ff    	sub    -0xa060(%ebp),%edx
 804969b:	29 ca                	sub    %ecx,%edx
 804969d:	8d 44 76 fd          	lea    -0x3(%esi,%esi,2),%eax
 80496a1:	8d 44 02 7b          	lea    0x7b(%edx,%eax,1),%eax
 80496a5:	3d 00 20 00 00       	cmp    $0x2000,%eax
 80496aa:	0f 86 82 00 00 00    	jbe    8049732 <submitr+0x300>
 80496b0:	8b 85 a4 5f ff ff    	mov    -0xa05c(%ebp),%eax
 80496b6:	c7 00 45 72 72 6f    	movl   $0x6f727245,(%eax)
 80496bc:	c7 40 04 72 3a 20 52 	movl   $0x52203a72,0x4(%eax)
 80496c3:	c7 40 08 65 73 75 6c 	movl   $0x6c757365,0x8(%eax)
 80496ca:	c7 40 0c 74 20 73 74 	movl   $0x74732074,0xc(%eax)
 80496d1:	c7 40 10 72 69 6e 67 	movl   $0x676e6972,0x10(%eax)
 80496d8:	c7 40 14 20 74 6f 6f 	movl   $0x6f6f7420,0x14(%eax)
 80496df:	c7 40 18 20 6c 61 72 	movl   $0x72616c20,0x18(%eax)
 80496e6:	c7 40 1c 67 65 2e 20 	movl   $0x202e6567,0x1c(%eax)
 80496ed:	c7 40 20 49 6e 63 72 	movl   $0x72636e49,0x20(%eax)
 80496f4:	c7 40 24 65 61 73 65 	movl   $0x65736165,0x24(%eax)
 80496fb:	c7 40 28 20 53 55 42 	movl   $0x42555320,0x28(%eax)
 8049702:	c7 40 2c 4d 49 54 52 	movl   $0x5254494d,0x2c(%eax)
 8049709:	c7 40 30 5f 4d 41 58 	movl   $0x58414d5f,0x30(%eax)
 8049710:	c7 40 34 42 55 46 00 	movl   $0x465542,0x34(%eax)
 8049717:	83 ec 0c             	sub    $0xc,%esp
 804971a:	ff b5 b4 5f ff ff    	pushl  -0xa04c(%ebp)
 8049720:	e8 7b f1 ff ff       	call   80488a0 <close@plt>
 8049725:	83 c4 10             	add    $0x10,%esp
 8049728:	b8 ff ff ff ff       	mov    $0xffffffff,%eax
 804972d:	e9 57 04 00 00       	jmp    8049b89 <submitr+0x757>
 8049732:	8d 95 e4 9f ff ff    	lea    -0x601c(%ebp),%edx
 8049738:	b9 00 08 00 00       	mov    $0x800,%ecx
 804973d:	b8 00 00 00 00       	mov    $0x0,%eax
 8049742:	89 d7                	mov    %edx,%edi
 8049744:	f3 ab                	rep stos %eax,%es:(%edi)
 8049746:	b9 ff ff ff ff       	mov    $0xffffffff,%ecx
 804974b:	89 df                	mov    %ebx,%edi
 804974d:	f2 ae                	repnz scas %es:(%edi),%al
 804974f:	f7 d1                	not    %ecx
 8049751:	89 ce                	mov    %ecx,%esi
 8049753:	83 ee 01             	sub    $0x1,%esi
 8049756:	0f 84 8a 04 00 00    	je     8049be6 <submitr+0x7b4>
 804975c:	89 d7                	mov    %edx,%edi
 804975e:	0f b6 13             	movzbl (%ebx),%edx
 8049761:	8d 4a d6             	lea    -0x2a(%edx),%ecx
 8049764:	b8 01 00 00 00       	mov    $0x1,%eax
 8049769:	80 f9 0f             	cmp    $0xf,%cl
 804976c:	77 0d                	ja     804977b <submitr+0x349>
 804976e:	b8 d9 ff 00 00       	mov    $0xffd9,%eax
 8049773:	d3 e8                	shr    %cl,%eax
 8049775:	83 f0 01             	xor    $0x1,%eax
 8049778:	83 e0 01             	and    $0x1,%eax
 804977b:	80 fa 5f             	cmp    $0x5f,%dl
 804977e:	0f 94 c1             	sete   %cl
 8049781:	38 c1                	cmp    %al,%cl
 8049783:	73 0c                	jae    8049791 <submitr+0x35f>
 8049785:	89 d0                	mov    %edx,%eax
 8049787:	83 e0 df             	and    $0xffffffdf,%eax
 804978a:	83 e8 41             	sub    $0x41,%eax
 804978d:	3c 19                	cmp    $0x19,%al
 804978f:	77 07                	ja     8049798 <submitr+0x366>
 8049791:	88 17                	mov    %dl,(%edi)
 8049793:	8d 7f 01             	lea    0x1(%edi),%edi
 8049796:	eb 5c                	jmp    80497f4 <submitr+0x3c2>
 8049798:	80 fa 20             	cmp    $0x20,%dl
 804979b:	75 08                	jne    80497a5 <submitr+0x373>
 804979d:	c6 07 2b             	movb   $0x2b,(%edi)
 80497a0:	8d 7f 01             	lea    0x1(%edi),%edi
 80497a3:	eb 4f                	jmp    80497f4 <submitr+0x3c2>
 80497a5:	8d 42 e0             	lea    -0x20(%edx),%eax
 80497a8:	3c 5f                	cmp    $0x5f,%al
 80497aa:	76 09                	jbe    80497b5 <submitr+0x383>
 80497ac:	80 fa 09             	cmp    $0x9,%dl
 80497af:	0f 85 e9 03 00 00    	jne    8049b9e <submitr+0x76c>
 80497b5:	83 ec 0c             	sub    $0xc,%esp
 80497b8:	0f b6 d2             	movzbl %dl,%edx
 80497bb:	52                   	push   %edx
 80497bc:	68 38 a4 04 08       	push   $0x804a438
 80497c1:	6a 08                	push   $0x8
 80497c3:	6a 01                	push   $0x1
 80497c5:	8d 85 e4 df ff ff    	lea    -0x201c(%ebp),%eax
 80497cb:	50                   	push   %eax
 80497cc:	e8 ef f0 ff ff       	call   80488c0 <__sprintf_chk@plt>
 80497d1:	0f b6 85 e4 df ff ff 	movzbl -0x201c(%ebp),%eax
 80497d8:	88 07                	mov    %al,(%edi)
 80497da:	0f b6 85 e5 df ff ff 	movzbl -0x201b(%ebp),%eax
 80497e1:	88 47 01             	mov    %al,0x1(%edi)
 80497e4:	0f b6 85 e6 df ff ff 	movzbl -0x201a(%ebp),%eax
 80497eb:	88 47 02             	mov    %al,0x2(%edi)
 80497ee:	83 c4 20             	add    $0x20,%esp
 80497f1:	8d 7f 03             	lea    0x3(%edi),%edi
 80497f4:	83 c3 01             	add    $0x1,%ebx
 80497f7:	83 ee 01             	sub    $0x1,%esi
 80497fa:	0f 85 5e ff ff ff    	jne    804975e <submitr+0x32c>
 8049800:	e9 e1 03 00 00       	jmp    8049be6 <submitr+0x7b4>
 8049805:	89 bd b0 5f ff ff    	mov    %edi,-0xa050(%ebp)
 804980b:	8b bd b4 5f ff ff    	mov    -0xa04c(%ebp),%edi
 8049811:	83 ec 04             	sub    $0x4,%esp
 8049814:	53                   	push   %ebx
 8049815:	56                   	push   %esi
 8049816:	57                   	push   %edi
 8049817:	e8 e4 ef ff ff       	call   8048800 <write@plt>
 804981c:	83 c4 10             	add    $0x10,%esp
 804981f:	85 c0                	test   %eax,%eax
 8049821:	7f 0f                	jg     8049832 <submitr+0x400>
 8049823:	e8 08 f0 ff ff       	call   8048830 <__errno_location@plt>
 8049828:	83 38 04             	cmpl   $0x4,(%eax)
 804982b:	75 15                	jne    8049842 <submitr+0x410>
 804982d:	b8 00 00 00 00       	mov    $0x0,%eax
 8049832:	01 c6                	add    %eax,%esi
 8049834:	29 c3                	sub    %eax,%ebx
 8049836:	75 d9                	jne    8049811 <submitr+0x3df>
 8049838:	8b bd b0 5f ff ff    	mov    -0xa050(%ebp),%edi
 804983e:	85 ff                	test   %edi,%edi
 8049840:	79 6d                	jns    80498af <submitr+0x47d>
 8049842:	8b 85 a4 5f ff ff    	mov    -0xa05c(%ebp),%eax
 8049848:	c7 00 45 72 72 6f    	movl   $0x6f727245,(%eax)
 804984e:	c7 40 04 72 3a 20 43 	movl   $0x43203a72,0x4(%eax)
 8049855:	c7 40 08 6c 69 65 6e 	movl   $0x6e65696c,0x8(%eax)
 804985c:	c7 40 0c 74 20 75 6e 	movl   $0x6e752074,0xc(%eax)
 8049863:	c7 40 10 61 62 6c 65 	movl   $0x656c6261,0x10(%eax)
 804986a:	c7 40 14 20 74 6f 20 	movl   $0x206f7420,0x14(%eax)
 8049871:	c7 40 18 77 72 69 74 	movl   $0x74697277,0x18(%eax)
 8049878:	c7 40 1c 65 20 74 6f 	movl   $0x6f742065,0x1c(%eax)
 804987f:	c7 40 20 20 74 68 65 	movl   $0x65687420,0x20(%eax)
 8049886:	c7 40 24 20 73 65 72 	movl   $0x72657320,0x24(%eax)
 804988d:	c7 40 28 76 65 72 00 	movl   $0x726576,0x28(%eax)
 8049894:	83 ec 0c             	sub    $0xc,%esp
 8049897:	ff b5 b4 5f ff ff    	pushl  -0xa04c(%ebp)
 804989d:	e8 fe ef ff ff       	call   80488a0 <close@plt>
 80498a2:	83 c4 10             	add    $0x10,%esp
 80498a5:	b8 ff ff ff ff       	mov    $0xffffffff,%eax
 80498aa:	e9 da 02 00 00       	jmp    8049b89 <submitr+0x757>
 80498af:	8b 85 b4 5f ff ff    	mov    -0xa04c(%ebp),%eax
 80498b5:	89 85 d8 5f ff ff    	mov    %eax,-0xa028(%ebp)
 80498bb:	c7 85 dc 5f ff ff 00 	movl   $0x0,-0xa024(%ebp)
 80498c2:	00 00 00 
 80498c5:	8d 85 e4 5f ff ff    	lea    -0xa01c(%ebp),%eax
 80498cb:	89 85 e0 5f ff ff    	mov    %eax,-0xa020(%ebp)
 80498d1:	b9 00 20 00 00       	mov    $0x2000,%ecx
 80498d6:	8d 95 e4 7f ff ff    	lea    -0x801c(%ebp),%edx
 80498dc:	8d 85 d8 5f ff ff    	lea    -0xa028(%ebp),%eax
 80498e2:	e8 6d fa ff ff       	call   8049354 <rio_readlineb>
 80498e7:	85 c0                	test   %eax,%eax
 80498e9:	0f 8f 81 00 00 00    	jg     8049970 <submitr+0x53e>
 80498ef:	8b 85 a4 5f ff ff    	mov    -0xa05c(%ebp),%eax
 80498f5:	c7 00 45 72 72 6f    	movl   $0x6f727245,(%eax)
 80498fb:	c7 40 04 72 3a 20 43 	movl   $0x43203a72,0x4(%eax)
 8049902:	c7 40 08 6c 69 65 6e 	movl   $0x6e65696c,0x8(%eax)
 8049909:	c7 40 0c 74 20 75 6e 	movl   $0x6e752074,0xc(%eax)
 8049910:	c7 40 10 61 62 6c 65 	movl   $0x656c6261,0x10(%eax)
 8049917:	c7 40 14 20 74 6f 20 	movl   $0x206f7420,0x14(%eax)
 804991e:	c7 40 18 72 65 61 64 	movl   $0x64616572,0x18(%eax)
 8049925:	c7 40 1c 20 66 69 72 	movl   $0x72696620,0x1c(%eax)
 804992c:	c7 40 20 73 74 20 68 	movl   $0x68207473,0x20(%eax)
 8049933:	c7 40 24 65 61 64 65 	movl   $0x65646165,0x24(%eax)
 804993a:	c7 40 28 72 20 66 72 	movl   $0x72662072,0x28(%eax)
 8049941:	c7 40 2c 6f 6d 20 73 	movl   $0x73206d6f,0x2c(%eax)
 8049948:	c7 40 30 65 72 76 65 	movl   $0x65767265,0x30(%eax)
 804994f:	66 c7 40 34 72 00    	movw   $0x72,0x34(%eax)
 8049955:	83 ec 0c             	sub    $0xc,%esp
 8049958:	ff b5 b4 5f ff ff    	pushl  -0xa04c(%ebp)
 804995e:	e8 3d ef ff ff       	call   80488a0 <close@plt>
 8049963:	83 c4 10             	add    $0x10,%esp
 8049966:	b8 ff ff ff ff       	mov    $0xffffffff,%eax
 804996b:	e9 19 02 00 00       	jmp    8049b89 <submitr+0x757>
 8049970:	83 ec 0c             	sub    $0xc,%esp
 8049973:	8d 85 e4 df ff ff    	lea    -0x201c(%ebp),%eax
 8049979:	50                   	push   %eax
 804997a:	8d 85 c4 5f ff ff    	lea    -0xa03c(%ebp),%eax
 8049980:	50                   	push   %eax
 8049981:	8d 85 e4 bf ff ff    	lea    -0x401c(%ebp),%eax
 8049987:	50                   	push   %eax
 8049988:	68 3f a4 04 08       	push   $0x804a43f
 804998d:	8d 85 e4 7f ff ff    	lea    -0x801c(%ebp),%eax
 8049993:	50                   	push   %eax
 8049994:	e8 77 ee ff ff       	call   8048810 <__isoc99_sscanf@plt>
 8049999:	8b 85 c4 5f ff ff    	mov    -0xa03c(%ebp),%eax
 804999f:	83 c4 20             	add    $0x20,%esp
 80499a2:	3d c8 00 00 00       	cmp    $0xc8,%eax
 80499a7:	0f 84 cc 00 00 00    	je     8049a79 <submitr+0x647>
 80499ad:	83 ec 08             	sub    $0x8,%esp
 80499b0:	8d 95 e4 df ff ff    	lea    -0x201c(%ebp),%edx
 80499b6:	52                   	push   %edx
 80499b7:	50                   	push   %eax
 80499b8:	68 50 a3 04 08       	push   $0x804a350
 80499bd:	6a ff                	push   $0xffffffff
 80499bf:	6a 01                	push   $0x1
 80499c1:	ff b5 a4 5f ff ff    	pushl  -0xa05c(%ebp)
 80499c7:	e8 f4 ee ff ff       	call   80488c0 <__sprintf_chk@plt>
 80499cc:	83 c4 14             	add    $0x14,%esp
 80499cf:	ff b5 b4 5f ff ff    	pushl  -0xa04c(%ebp)
 80499d5:	e8 c6 ee ff ff       	call   80488a0 <close@plt>
 80499da:	83 c4 10             	add    $0x10,%esp
 80499dd:	b8 ff ff ff ff       	mov    $0xffffffff,%eax
 80499e2:	e9 a2 01 00 00       	jmp    8049b89 <submitr+0x757>
 80499e7:	b9 00 20 00 00       	mov    $0x2000,%ecx
 80499ec:	8d 95 e4 7f ff ff    	lea    -0x801c(%ebp),%edx
 80499f2:	8d 85 d8 5f ff ff    	lea    -0xa028(%ebp),%eax
 80499f8:	e8 57 f9 ff ff       	call   8049354 <rio_readlineb>
 80499fd:	85 c0                	test   %eax,%eax
 80499ff:	7f 78                	jg     8049a79 <submitr+0x647>
 8049a01:	8b 85 a4 5f ff ff    	mov    -0xa05c(%ebp),%eax
 8049a07:	c7 00 45 72 72 6f    	movl   $0x6f727245,(%eax)
 8049a0d:	c7 40 04 72 3a 20 43 	movl   $0x43203a72,0x4(%eax)
 8049a14:	c7 40 08 6c 69 65 6e 	movl   $0x6e65696c,0x8(%eax)
 8049a1b:	c7 40 0c 74 20 75 6e 	movl   $0x6e752074,0xc(%eax)
 8049a22:	c7 40 10 61 62 6c 65 	movl   $0x656c6261,0x10(%eax)
 8049a29:	c7 40 14 20 74 6f 20 	movl   $0x206f7420,0x14(%eax)
 8049a30:	c7 40 18 72 65 61 64 	movl   $0x64616572,0x18(%eax)
 8049a37:	c7 40 1c 20 68 65 61 	movl   $0x61656820,0x1c(%eax)
 8049a3e:	c7 40 20 64 65 72 73 	movl   $0x73726564,0x20(%eax)
 8049a45:	c7 40 24 20 66 72 6f 	movl   $0x6f726620,0x24(%eax)
 8049a4c:	c7 40 28 6d 20 73 65 	movl   $0x6573206d,0x28(%eax)
 8049a53:	c7 40 2c 72 76 65 72 	movl   $0x72657672,0x2c(%eax)
 8049a5a:	c6 40 30 00          	movb   $0x0,0x30(%eax)
 8049a5e:	83 ec 0c             	sub    $0xc,%esp
 8049a61:	ff b5 b4 5f ff ff    	pushl  -0xa04c(%ebp)
 8049a67:	e8 34 ee ff ff       	call   80488a0 <close@plt>
 8049a6c:	83 c4 10             	add    $0x10,%esp
 8049a6f:	b8 ff ff ff ff       	mov    $0xffffffff,%eax
 8049a74:	e9 10 01 00 00       	jmp    8049b89 <submitr+0x757>
 8049a79:	80 bd e4 7f ff ff 0d 	cmpb   $0xd,-0x801c(%ebp)
 8049a80:	0f 85 61 ff ff ff    	jne    80499e7 <submitr+0x5b5>
 8049a86:	80 bd e5 7f ff ff 0a 	cmpb   $0xa,-0x801b(%ebp)
 8049a8d:	0f 85 54 ff ff ff    	jne    80499e7 <submitr+0x5b5>
 8049a93:	80 bd e6 7f ff ff 00 	cmpb   $0x0,-0x801a(%ebp)
 8049a9a:	0f 85 47 ff ff ff    	jne    80499e7 <submitr+0x5b5>
 8049aa0:	b9 00 20 00 00       	mov    $0x2000,%ecx
 8049aa5:	8d 95 e4 7f ff ff    	lea    -0x801c(%ebp),%edx
 8049aab:	8d 85 d8 5f ff ff    	lea    -0xa028(%ebp),%eax
 8049ab1:	e8 9e f8 ff ff       	call   8049354 <rio_readlineb>
 8049ab6:	85 c0                	test   %eax,%eax
 8049ab8:	7f 7f                	jg     8049b39 <submitr+0x707>
 8049aba:	8b 85 a4 5f ff ff    	mov    -0xa05c(%ebp),%eax
 8049ac0:	c7 00 45 72 72 6f    	movl   $0x6f727245,(%eax)
 8049ac6:	c7 40 04 72 3a 20 43 	movl   $0x43203a72,0x4(%eax)
 8049acd:	c7 40 08 6c 69 65 6e 	movl   $0x6e65696c,0x8(%eax)
 8049ad4:	c7 40 0c 74 20 75 6e 	movl   $0x6e752074,0xc(%eax)
 8049adb:	c7 40 10 61 62 6c 65 	movl   $0x656c6261,0x10(%eax)
 8049ae2:	c7 40 14 20 74 6f 20 	movl   $0x206f7420,0x14(%eax)
 8049ae9:	c7 40 18 72 65 61 64 	movl   $0x64616572,0x18(%eax)
 8049af0:	c7 40 1c 20 73 74 61 	movl   $0x61747320,0x1c(%eax)
 8049af7:	c7 40 20 74 75 73 20 	movl   $0x20737574,0x20(%eax)
 8049afe:	c7 40 24 6d 65 73 73 	movl   $0x7373656d,0x24(%eax)
 8049b05:	c7 40 28 61 67 65 20 	movl   $0x20656761,0x28(%eax)
 8049b0c:	c7 40 2c 66 72 6f 6d 	movl   $0x6d6f7266,0x2c(%eax)
 8049b13:	c7 40 30 20 73 65 72 	movl   $0x72657320,0x30(%eax)
 8049b1a:	c7 40 34 76 65 72 00 	movl   $0x726576,0x34(%eax)
 8049b21:	83 ec 0c             	sub    $0xc,%esp
 8049b24:	ff b5 b4 5f ff ff    	pushl  -0xa04c(%ebp)
 8049b2a:	e8 71 ed ff ff       	call   80488a0 <close@plt>
 8049b2f:	83 c4 10             	add    $0x10,%esp
 8049b32:	b8 ff ff ff ff       	mov    $0xffffffff,%eax
 8049b37:	eb 50                	jmp    8049b89 <submitr+0x757>
 8049b39:	83 ec 08             	sub    $0x8,%esp
 8049b3c:	8d 85 e4 7f ff ff    	lea    -0x801c(%ebp),%eax
 8049b42:	50                   	push   %eax
 8049b43:	8b b5 a4 5f ff ff    	mov    -0xa05c(%ebp),%esi
 8049b49:	56                   	push   %esi
 8049b4a:	e8 51 ec ff ff       	call   80487a0 <strcpy@plt>
 8049b4f:	83 c4 04             	add    $0x4,%esp
 8049b52:	ff b5 b4 5f ff ff    	pushl  -0xa04c(%ebp)
 8049b58:	e8 43 ed ff ff       	call   80488a0 <close@plt>
 8049b5d:	0f b6 16             	movzbl (%esi),%edx
 8049b60:	b8 4f 00 00 00       	mov    $0x4f,%eax
 8049b65:	83 c4 10             	add    $0x10,%esp
 8049b68:	29 d0                	sub    %edx,%eax
 8049b6a:	75 13                	jne    8049b7f <submitr+0x74d>
 8049b6c:	0f b6 56 01          	movzbl 0x1(%esi),%edx
 8049b70:	b8 4b 00 00 00       	mov    $0x4b,%eax
 8049b75:	29 d0                	sub    %edx,%eax
 8049b77:	75 06                	jne    8049b7f <submitr+0x74d>
 8049b79:	0f b6 46 02          	movzbl 0x2(%esi),%eax
 8049b7d:	f7 d8                	neg    %eax
 8049b7f:	85 c0                	test   %eax,%eax
 8049b81:	0f 95 c0             	setne  %al
 8049b84:	0f b6 c0             	movzbl %al,%eax
 8049b87:	f7 d8                	neg    %eax
 8049b89:	8b 75 e4             	mov    -0x1c(%ebp),%esi
 8049b8c:	65 33 35 14 00 00 00 	xor    %gs:0x14,%esi
 8049b93:	0f 84 ae 00 00 00    	je     8049c47 <submitr+0x815>
 8049b99:	e9 a4 00 00 00       	jmp    8049c42 <submitr+0x810>
 8049b9e:	a1 80 a3 04 08       	mov    0x804a380,%eax
 8049ba3:	8b b5 a4 5f ff ff    	mov    -0xa05c(%ebp),%esi
 8049ba9:	89 06                	mov    %eax,(%esi)
 8049bab:	a1 bf a3 04 08       	mov    0x804a3bf,%eax
 8049bb0:	89 46 3f             	mov    %eax,0x3f(%esi)
 8049bb3:	8d 7e 04             	lea    0x4(%esi),%edi
 8049bb6:	83 e7 fc             	and    $0xfffffffc,%edi
 8049bb9:	29 fe                	sub    %edi,%esi
 8049bbb:	89 f0                	mov    %esi,%eax
 8049bbd:	be 80 a3 04 08       	mov    $0x804a380,%esi
 8049bc2:	29 c6                	sub    %eax,%esi
 8049bc4:	83 c0 43             	add    $0x43,%eax
 8049bc7:	c1 e8 02             	shr    $0x2,%eax
 8049bca:	89 c1                	mov    %eax,%ecx
 8049bcc:	f3 a5                	rep movsl %ds:(%esi),%es:(%edi)
 8049bce:	83 ec 0c             	sub    $0xc,%esp
 8049bd1:	ff b5 b4 5f ff ff    	pushl  -0xa04c(%ebp)
 8049bd7:	e8 c4 ec ff ff       	call   80488a0 <close@plt>
 8049bdc:	83 c4 10             	add    $0x10,%esp
 8049bdf:	b8 ff ff ff ff       	mov    $0xffffffff,%eax
 8049be4:	eb a3                	jmp    8049b89 <submitr+0x757>
 8049be6:	8d 85 e4 9f ff ff    	lea    -0x601c(%ebp),%eax
 8049bec:	50                   	push   %eax
 8049bed:	ff b5 a8 5f ff ff    	pushl  -0xa058(%ebp)
 8049bf3:	ff b5 ac 5f ff ff    	pushl  -0xa054(%ebp)
 8049bf9:	ff b5 b0 5f ff ff    	pushl  -0xa050(%ebp)
 8049bff:	68 c4 a3 04 08       	push   $0x804a3c4
 8049c04:	68 00 20 00 00       	push   $0x2000
 8049c09:	6a 01                	push   $0x1
 8049c0b:	8d bd e4 7f ff ff    	lea    -0x801c(%ebp),%edi
 8049c11:	57                   	push   %edi
 8049c12:	e8 a9 ec ff ff       	call   80488c0 <__sprintf_chk@plt>
 8049c17:	b8 00 00 00 00       	mov    $0x0,%eax
 8049c1c:	b9 ff ff ff ff       	mov    $0xffffffff,%ecx
 8049c21:	f2 ae                	repnz scas %es:(%edi),%al
 8049c23:	89 cf                	mov    %ecx,%edi
 8049c25:	f7 d7                	not    %edi
 8049c27:	83 ef 01             	sub    $0x1,%edi
 8049c2a:	83 c4 20             	add    $0x20,%esp
 8049c2d:	89 fb                	mov    %edi,%ebx
 8049c2f:	8d b5 e4 7f ff ff    	lea    -0x801c(%ebp),%esi
 8049c35:	85 ff                	test   %edi,%edi
 8049c37:	0f 85 c8 fb ff ff    	jne    8049805 <submitr+0x3d3>
 8049c3d:	e9 6d fc ff ff       	jmp    80498af <submitr+0x47d>
 8049c42:	e8 49 eb ff ff       	call   8048790 <__stack_chk_fail@plt>
 8049c47:	8d 65 f4             	lea    -0xc(%ebp),%esp
 8049c4a:	5b                   	pop    %ebx
 8049c4b:	5e                   	pop    %esi
 8049c4c:	5f                   	pop    %edi
 8049c4d:	5d                   	pop    %ebp
 8049c4e:	c3                   	ret    

08049c4f <init_timeout>:
 8049c4f:	55                   	push   %ebp
 8049c50:	89 e5                	mov    %esp,%ebp
 8049c52:	53                   	push   %ebx
 8049c53:	83 ec 04             	sub    $0x4,%esp
 8049c56:	8b 5d 08             	mov    0x8(%ebp),%ebx
 8049c59:	85 db                	test   %ebx,%ebx
 8049c5b:	74 24                	je     8049c81 <init_timeout+0x32>
 8049c5d:	83 ec 08             	sub    $0x8,%esp
 8049c60:	68 2e 93 04 08       	push   $0x804932e
 8049c65:	6a 0e                	push   $0xe
 8049c67:	e8 f4 ea ff ff       	call   8048760 <signal@plt>
 8049c6c:	85 db                	test   %ebx,%ebx
 8049c6e:	b8 00 00 00 00       	mov    $0x0,%eax
 8049c73:	0f 48 d8             	cmovs  %eax,%ebx
 8049c76:	89 1c 24             	mov    %ebx,(%esp)
 8049c79:	e8 02 eb ff ff       	call   8048780 <alarm@plt>
 8049c7e:	83 c4 10             	add    $0x10,%esp
 8049c81:	8b 5d fc             	mov    -0x4(%ebp),%ebx
 8049c84:	c9                   	leave  
 8049c85:	c3                   	ret    

08049c86 <init_driver>:
 8049c86:	55                   	push   %ebp
 8049c87:	89 e5                	mov    %esp,%ebp
 8049c89:	57                   	push   %edi
 8049c8a:	56                   	push   %esi
 8049c8b:	53                   	push   %ebx
 8049c8c:	83 ec 34             	sub    $0x34,%esp
 8049c8f:	8b 75 08             	mov    0x8(%ebp),%esi
 8049c92:	65 a1 14 00 00 00    	mov    %gs:0x14,%eax
 8049c98:	89 45 e4             	mov    %eax,-0x1c(%ebp)
 8049c9b:	31 c0                	xor    %eax,%eax
 8049c9d:	6a 01                	push   $0x1
 8049c9f:	6a 0d                	push   $0xd
 8049ca1:	e8 ba ea ff ff       	call   8048760 <signal@plt>
 8049ca6:	83 c4 08             	add    $0x8,%esp
 8049ca9:	6a 01                	push   $0x1
 8049cab:	6a 1d                	push   $0x1d
 8049cad:	e8 ae ea ff ff       	call   8048760 <signal@plt>
 8049cb2:	83 c4 08             	add    $0x8,%esp
 8049cb5:	6a 01                	push   $0x1
 8049cb7:	6a 1d                	push   $0x1d
 8049cb9:	e8 a2 ea ff ff       	call   8048760 <signal@plt>
 8049cbe:	83 c4 0c             	add    $0xc,%esp
 8049cc1:	6a 00                	push   $0x0
 8049cc3:	6a 01                	push   $0x1
 8049cc5:	6a 02                	push   $0x2
 8049cc7:	e8 84 eb ff ff       	call   8048850 <socket@plt>
 8049ccc:	83 c4 10             	add    $0x10,%esp
 8049ccf:	85 c0                	test   %eax,%eax
 8049cd1:	79 4e                	jns    8049d21 <init_driver+0x9b>
 8049cd3:	c7 06 45 72 72 6f    	movl   $0x6f727245,(%esi)
 8049cd9:	c7 46 04 72 3a 20 43 	movl   $0x43203a72,0x4(%esi)
 8049ce0:	c7 46 08 6c 69 65 6e 	movl   $0x6e65696c,0x8(%esi)
 8049ce7:	c7 46 0c 74 20 75 6e 	movl   $0x6e752074,0xc(%esi)
 8049cee:	c7 46 10 61 62 6c 65 	movl   $0x656c6261,0x10(%esi)
 8049cf5:	c7 46 14 20 74 6f 20 	movl   $0x206f7420,0x14(%esi)
 8049cfc:	c7 46 18 63 72 65 61 	movl   $0x61657263,0x18(%esi)
 8049d03:	c7 46 1c 74 65 20 73 	movl   $0x73206574,0x1c(%esi)
 8049d0a:	c7 46 20 6f 63 6b 65 	movl   $0x656b636f,0x20(%esi)
 8049d11:	66 c7 46 24 74 00    	movw   $0x74,0x24(%esi)
 8049d17:	b8 ff ff ff ff       	mov    $0xffffffff,%eax
 8049d1c:	e9 17 01 00 00       	jmp    8049e38 <init_driver+0x1b2>
 8049d21:	89 c3                	mov    %eax,%ebx
 8049d23:	83 ec 0c             	sub    $0xc,%esp
 8049d26:	68 50 a4 04 08       	push   $0x804a450
 8049d2b:	e8 40 eb ff ff       	call   8048870 <gethostbyname@plt>
 8049d30:	83 c4 10             	add    $0x10,%esp
 8049d33:	85 c0                	test   %eax,%eax
 8049d35:	75 6c                	jne    8049da3 <init_driver+0x11d>
 8049d37:	c7 06 45 72 72 6f    	movl   $0x6f727245,(%esi)
 8049d3d:	c7 46 04 72 3a 20 44 	movl   $0x44203a72,0x4(%esi)
 8049d44:	c7 46 08 4e 53 20 69 	movl   $0x6920534e,0x8(%esi)
 8049d4b:	c7 46 0c 73 20 75 6e 	movl   $0x6e752073,0xc(%esi)
 8049d52:	c7 46 10 61 62 6c 65 	movl   $0x656c6261,0x10(%esi)
 8049d59:	c7 46 14 20 74 6f 20 	movl   $0x206f7420,0x14(%esi)
 8049d60:	c7 46 18 72 65 73 6f 	movl   $0x6f736572,0x18(%esi)
 8049d67:	c7 46 1c 6c 76 65 20 	movl   $0x2065766c,0x1c(%esi)
 8049d6e:	c7 46 20 73 65 72 76 	movl   $0x76726573,0x20(%esi)
 8049d75:	c7 46 24 65 72 20 61 	movl   $0x61207265,0x24(%esi)
 8049d7c:	c7 46 28 64 64 72 65 	movl   $0x65726464,0x28(%esi)
 8049d83:	66 c7 46 2c 73 73    	movw   $0x7373,0x2c(%esi)
 8049d89:	c6 46 2e 00          	movb   $0x0,0x2e(%esi)
 8049d8d:	83 ec 0c             	sub    $0xc,%esp
 8049d90:	53                   	push   %ebx
 8049d91:	e8 0a eb ff ff       	call   80488a0 <close@plt>
 8049d96:	83 c4 10             	add    $0x10,%esp
 8049d99:	b8 ff ff ff ff       	mov    $0xffffffff,%eax
 8049d9e:	e9 95 00 00 00       	jmp    8049e38 <init_driver+0x1b2>
 8049da3:	8d 7d d4             	lea    -0x2c(%ebp),%edi
 8049da6:	c7 45 d4 00 00 00 00 	movl   $0x0,-0x2c(%ebp)
 8049dad:	c7 45 d8 00 00 00 00 	movl   $0x0,-0x28(%ebp)
 8049db4:	c7 45 dc 00 00 00 00 	movl   $0x0,-0x24(%ebp)
 8049dbb:	c7 45 e0 00 00 00 00 	movl   $0x0,-0x20(%ebp)
 8049dc2:	66 c7 45 d4 02 00    	movw   $0x2,-0x2c(%ebp)
 8049dc8:	6a 0c                	push   $0xc
 8049dca:	ff 70 0c             	pushl  0xc(%eax)
 8049dcd:	8b 40 10             	mov    0x10(%eax),%eax
 8049dd0:	ff 30                	pushl  (%eax)
 8049dd2:	8d 45 d8             	lea    -0x28(%ebp),%eax
 8049dd5:	50                   	push   %eax
 8049dd6:	e8 f5 e9 ff ff       	call   80487d0 <__memmove_chk@plt>
 8049ddb:	66 c7 45 d6 3b 6e    	movw   $0x6e3b,-0x2a(%ebp)
 8049de1:	83 c4 0c             	add    $0xc,%esp
 8049de4:	6a 10                	push   $0x10
 8049de6:	57                   	push   %edi
 8049de7:	53                   	push   %ebx
 8049de8:	e8 a3 ea ff ff       	call   8048890 <connect@plt>
 8049ded:	83 c4 10             	add    $0x10,%esp
 8049df0:	85 c0                	test   %eax,%eax
 8049df2:	79 2a                	jns    8049e1e <init_driver+0x198>
 8049df4:	83 ec 0c             	sub    $0xc,%esp
 8049df7:	68 50 a4 04 08       	push   $0x804a450
 8049dfc:	68 10 a4 04 08       	push   $0x804a410
 8049e01:	6a ff                	push   $0xffffffff
 8049e03:	6a 01                	push   $0x1
 8049e05:	56                   	push   %esi
 8049e06:	e8 b5 ea ff ff       	call   80488c0 <__sprintf_chk@plt>
 8049e0b:	83 c4 14             	add    $0x14,%esp
 8049e0e:	53                   	push   %ebx
 8049e0f:	e8 8c ea ff ff       	call   80488a0 <close@plt>
 8049e14:	83 c4 10             	add    $0x10,%esp
 8049e17:	b8 ff ff ff ff       	mov    $0xffffffff,%eax
 8049e1c:	eb 1a                	jmp    8049e38 <init_driver+0x1b2>
 8049e1e:	83 ec 0c             	sub    $0xc,%esp
 8049e21:	53                   	push   %ebx
 8049e22:	e8 79 ea ff ff       	call   80488a0 <close@plt>
 8049e27:	66 c7 06 4f 4b       	movw   $0x4b4f,(%esi)
 8049e2c:	c6 46 02 00          	movb   $0x0,0x2(%esi)
 8049e30:	83 c4 10             	add    $0x10,%esp
 8049e33:	b8 00 00 00 00       	mov    $0x0,%eax
 8049e38:	8b 55 e4             	mov    -0x1c(%ebp),%edx
 8049e3b:	65 33 15 14 00 00 00 	xor    %gs:0x14,%edx
 8049e42:	74 05                	je     8049e49 <init_driver+0x1c3>
 8049e44:	e8 47 e9 ff ff       	call   8048790 <__stack_chk_fail@plt>
 8049e49:	8d 65 f4             	lea    -0xc(%ebp),%esp
 8049e4c:	5b                   	pop    %ebx
 8049e4d:	5e                   	pop    %esi
 8049e4e:	5f                   	pop    %edi
 8049e4f:	5d                   	pop    %ebp
 8049e50:	c3                   	ret    

08049e51 <driver_post>:
 8049e51:	55                   	push   %ebp
 8049e52:	89 e5                	mov    %esp,%ebp
 8049e54:	53                   	push   %ebx
 8049e55:	83 ec 04             	sub    $0x4,%esp
 8049e58:	8b 45 08             	mov    0x8(%ebp),%eax
 8049e5b:	8b 5d 14             	mov    0x14(%ebp),%ebx
 8049e5e:	83 7d 10 00          	cmpl   $0x0,0x10(%ebp)
 8049e62:	74 25                	je     8049e89 <driver_post+0x38>
 8049e64:	83 ec 04             	sub    $0x4,%esp
 8049e67:	ff 75 0c             	pushl  0xc(%ebp)
 8049e6a:	68 60 a4 04 08       	push   $0x804a460
 8049e6f:	6a 01                	push   $0x1
 8049e71:	e8 ca e9 ff ff       	call   8048840 <__printf_chk@plt>
 8049e76:	66 c7 03 4f 4b       	movw   $0x4b4f,(%ebx)
 8049e7b:	c6 43 02 00          	movb   $0x0,0x2(%ebx)
 8049e7f:	83 c4 10             	add    $0x10,%esp
 8049e82:	b8 00 00 00 00       	mov    $0x0,%eax
 8049e87:	eb 3d                	jmp    8049ec6 <driver_post+0x75>
 8049e89:	85 c0                	test   %eax,%eax
 8049e8b:	74 2b                	je     8049eb8 <driver_post+0x67>
 8049e8d:	80 38 00             	cmpb   $0x0,(%eax)
 8049e90:	74 26                	je     8049eb8 <driver_post+0x67>
 8049e92:	83 ec 04             	sub    $0x4,%esp
 8049e95:	53                   	push   %ebx
 8049e96:	ff 75 0c             	pushl  0xc(%ebp)
 8049e99:	68 77 a4 04 08       	push   $0x804a477
 8049e9e:	50                   	push   %eax
 8049e9f:	68 86 a4 04 08       	push   $0x804a486
 8049ea4:	68 6e 3b 00 00       	push   $0x3b6e
 8049ea9:	68 50 a4 04 08       	push   $0x804a450
 8049eae:	e8 7f f5 ff ff       	call   8049432 <submitr>
 8049eb3:	83 c4 20             	add    $0x20,%esp
 8049eb6:	eb 0e                	jmp    8049ec6 <driver_post+0x75>
 8049eb8:	66 c7 03 4f 4b       	movw   $0x4b4f,(%ebx)
 8049ebd:	c6 43 02 00          	movb   $0x0,0x2(%ebx)
 8049ec1:	b8 00 00 00 00       	mov    $0x0,%eax
 8049ec6:	8b 5d fc             	mov    -0x4(%ebp),%ebx
 8049ec9:	c9                   	leave  
 8049eca:	c3                   	ret    
 8049ecb:	66 90                	xchg   %ax,%ax
 8049ecd:	66 90                	xchg   %ax,%ax
 8049ecf:	90                   	nop

08049ed0 <__libc_csu_init>:
 8049ed0:	55                   	push   %ebp
 8049ed1:	57                   	push   %edi
 8049ed2:	56                   	push   %esi
 8049ed3:	53                   	push   %ebx
 8049ed4:	e8 37 ea ff ff       	call   8048910 <__x86.get_pc_thunk.bx>
 8049ed9:	81 c3 27 21 00 00    	add    $0x2127,%ebx
 8049edf:	83 ec 0c             	sub    $0xc,%esp
 8049ee2:	8b 6c 24 20          	mov    0x20(%esp),%ebp
 8049ee6:	8d b3 0c ff ff ff    	lea    -0xf4(%ebx),%esi
 8049eec:	e8 03 e8 ff ff       	call   80486f4 <_init>
 8049ef1:	8d 83 08 ff ff ff    	lea    -0xf8(%ebx),%eax
 8049ef7:	29 c6                	sub    %eax,%esi
 8049ef9:	c1 fe 02             	sar    $0x2,%esi
 8049efc:	85 f6                	test   %esi,%esi
 8049efe:	74 25                	je     8049f25 <__libc_csu_init+0x55>
 8049f00:	31 ff                	xor    %edi,%edi
 8049f02:	8d b6 00 00 00 00    	lea    0x0(%esi),%esi
 8049f08:	83 ec 04             	sub    $0x4,%esp
 8049f0b:	ff 74 24 2c          	pushl  0x2c(%esp)
 8049f0f:	ff 74 24 2c          	pushl  0x2c(%esp)
 8049f13:	55                   	push   %ebp
 8049f14:	ff 94 bb 08 ff ff ff 	call   *-0xf8(%ebx,%edi,4)
 8049f1b:	83 c7 01             	add    $0x1,%edi
 8049f1e:	83 c4 10             	add    $0x10,%esp
 8049f21:	39 f7                	cmp    %esi,%edi
 8049f23:	75 e3                	jne    8049f08 <__libc_csu_init+0x38>
 8049f25:	83 c4 0c             	add    $0xc,%esp
 8049f28:	5b                   	pop    %ebx
 8049f29:	5e                   	pop    %esi
 8049f2a:	5f                   	pop    %edi
 8049f2b:	5d                   	pop    %ebp
 8049f2c:	c3                   	ret    
 8049f2d:	8d 76 00             	lea    0x0(%esi),%esi

08049f30 <__libc_csu_fini>:
 8049f30:	f3 c3                	repz ret 

Disassembly of section .fini:

08049f34 <_fini>:
 8049f34:	53                   	push   %ebx
 8049f35:	83 ec 08             	sub    $0x8,%esp
 8049f38:	e8 d3 e9 ff ff       	call   8048910 <__x86.get_pc_thunk.bx>
 8049f3d:	81 c3 c3 20 00 00    	add    $0x20c3,%ebx
 8049f43:	83 c4 08             	add    $0x8,%esp
 8049f46:	5b                   	pop    %ebx
 8049f47:	c3                   	ret    
